
 EA

 Start     Length     Name                   Class                  Group
 0001:0000 00E22H     LOGO                   CODE 
 0001:0E22 002CFH     JPICK                  CODE 
 0001:10F2 0026EH     DISPSCRN               CODE 
 0001:1360 0019DH     TELLOUT                CODE 
 0001:14FE 00077H     CONFIRM                CODE 
 0001:1576 0007CH     ONTASK                 CODE 
 0001:15F2 007B8H     JGETDATA               CODE 
 0001:1DAA 00248H     MSG                    CODE 
 0001:1FF2 00063H     BIGELEM                CODE 
 0001:2056 0020EH     JSFILT                 CODE 
 0001:2264 00813H     MCHOICE                CODE 
 0001:2A78 000D8H     MC_GOTO                CODE 
 0001:2B50 00065H     FINDBIGEST             CODE 
 0001:2BB6 00062H     FINDBIGEST             CODE 
 0001:2C18 00137H     MC_DODIM               CODE 
 0001:2D50 00248H     MESSYN                 CODE 
 0001:2F98 00110H     OPCONFIRM              CODE 
 0001:30A8 00091H     CLEANUP                CODE 
 0001:313A 00085H     SAYVERTI               CODE 
 0001:31C0 0004BH     LEADCHAR               CODE 
 0001:320C 0020BH     J_GETMEMO              CODE 
 0001:3418 00261H     INWORDS                CODE 
 0001:367A 0011AH     GRP_TO_WOR             CODE 
 0001:3794 0003AH     SOL10                  CODE 
 0001:37CE 00068H     PRN_RESET              CODE 
 0001:3836 00057H     PRN_LQ                 CODE 
 0001:388E 00057H     PRN_DRAFT              CODE 
 0001:38E6 00057H     PRN_BIGCHA             CODE 
 0001:393E 00057H     PRN_SMALLC             CODE 
 0001:3996 000A6H     DOSETVARS              CODE 
 0001:3A3C 0010FH     LOADCMP                CODE 
 0001:3B4C 003C1H     CLOSETHED$             CODE 
 0001:3F0E 00037H     IB                     CODE 
 0001:3F46 00034H     IB                     CODE 
 0001:3F7A 00969H     INDEXFILES             CODE 
 0001:48E4 0003CH     INVRT_CLR              CODE 
 0001:4920 00043H     BOXGETCOLO             CODE 
 0001:4964 0003BH     BOXCOLOR               CODE 
 0001:49A0 00098H     YBOXCOLOR              CODE 
 0001:4A38 00032H     NBOXCOLOR              CODE 
 0001:4A6A 00032H     MENUCOLOR              CODE 
 0001:4A9C 00041H     NONCOLOR               CODE 
 0001:4ADE 0007FH     GETCOLOR               CODE 
 0001:4B5E 0003DH     SCRCOLOR               CODE 
 0001:4B9C 0003CH     MSGCOLOR               CODE 
 0001:4BD8 0003CH     LINECOLOR              CODE 
 0001:4C14 0003BH     BROWCOLOR              CODE 
 0001:4C50 00093H     FOOTLINE               CODE 
 0001:4CE4 00164H     DOINTRO                CODE 
 0001:4E48 00034H     MESSAGE                CODE 
 0001:4E7C 00036H     STOCKENTRY             CODE 
 0001:4EB2 00856H     U_GETPASS              CODE 
 0001:5708 00094H     U_1SCRAMBL             CODE 
 0001:579C 000ABH     U_2SCRAMBL             CODE 
 0001:5848 001ADH     DIR                    CODE 
 0001:59F6 000E1H     JSETDEFAUL             CODE 
 0001:5AD8 0009FH     CHECKCLOSE             CODE 
 0001:5B78 000F4H     PRNCHECK               CODE 
 0001:5C6C 0018EH     OPENBOOKS              CODE 
 0001:5DFA 000C5H     OPENED                 CODE 
 0001:5EC0 000C2H     OPENDIR                CODE 
 0001:5F82 00078H     CLOSEDATAS             CODE 
 0001:5FFA 001C2H     DBF_IO                 CODE 
 0001:61BC 0007AH     EXITASSUP              CODE 
 0001:6236 00081H     EXPAND                 CODE 
 0001:62B8 008C8H     CHANGECOMP             CODE 
 0001:6B80 0003EH     DOWNCLOSE              CODE 
 0001:6BBE 00102H     OPENALL                CODE 
 0001:6CC0 00102H     CLOSEALL               CODE 
 0001:6DC2 000BFH     REQINV                 CODE 
 0001:6E82 000BFH     REQSERV                CODE 
 0001:6F42 0009EH     SCRCENTER              CODE 
 0001:6FE0 004EEH     JALERT                 CODE 
 0001:74CE 001D0H     JSAVEENV               CODE 
 0001:769E 002ECH     JRESTENV               CODE 
 0001:798A 001E4H     PLSWAIT                CODE 
 0001:7B6E 00169H     FPASSWORD              CODE 
 0001:7CD8 000E7H     JENCRYPT               CODE 
 0001:7DC0 000E7H     JDECRYPT               CODE 
 0001:7EA8 00B58H     SETVARS$               CODE 
 0001:8A00 00456H     POP_HELP               CODE 
 0001:8E56 00029H     USERNAME               CODE 
 0001:8E80 00027H     USER                   CODE 
 0001:8EA8 000A6H     DISPUSER               CODE 
 0001:8F4E 0007AH     UNAME                  CODE 
 0001:8FC8 00078H     SAMEUSER               CODE 
 0001:9040 00707H     CHNPWORD               CODE 
 0001:9748 00054H     JDDIR                  CODE 
 0001:979C 002D3H     ABOUTME                CODE 
 0001:9A70 001C4H     MOVELR                 CODE 
 0001:9C34 001AFH     PWORDLIST              CODE 
 0001:9DE4 00299H     XBXX                   CODE 
 0001:A07E 000F7H     XBXXPLODE              CODE 
 0001:A176 000B8H     ENCSRL                 CODE 
 0001:A22E 0006DH     JRANDOM                CODE 
 0001:A29C 005D4H     ARMENU                 CODE 
 0001:A870 0004DH     MEMORY_REF             CODE 
 0001:A8BE 00093H     OPENUSERS              CODE 
 0001:A952 0008FH     UNLOG                  CODE 
 0001:A9E2 000A4H     LOGINFO                CODE 
 0001:AA86 0023AH     JRLOCK                 CODE 
 0001:ACC0 0002EH     JRUNLOCK               CODE 
 0001:ACEE 0022DH     JFLOCK                 CODE 
 0001:AF1C 001DFH     EUSE                   CODE 
 0001:B0FC 00109H     OPENDSEQ               CODE 
 0001:B206 00027H     NETDRIVE               CODE 
 0001:B22E 0005FH     DATADIR                CODE 
 0001:B28E 00044H     NOZERO                 CODE 
 0001:B2D2 0004BH     HOBRANCH               CODE 
 0001:B31E 0016EH     DOREID                 CODE 
 0001:B48C 00079H     VS_USE                 CODE 
 0001:B506 0021DH     VS_USE                 CODE 
 0001:B724 00121H     SAYTITLES              CODE 
 0001:B846 00103H     DGTITLES               CODE 
 0001:B94A 00084H     ISDIRPRESE             CODE 
 0001:B9CE 0004CH     ISLINE                 CODE 
 0001:BA1A 0016AH     JGETDATE               CODE 
 0001:BB84 00138H     JSETFONT               CODE 
 0001:BCBC 000C9H     INITAJFONT             CODE 
 0001:BD86 000D2H     SYSSTATUS              CODE 
 0001:BE58 000F2H     GODOS                  CODE 
 0001:BF4A 00105H     C_LOADIT               CODE 
 0001:C050 000E6H     CHN_COLOR              CODE 
 0001:C136 000F5H     ASM_DONOTH             CODE 
 0001:C22C 00050H     JLMSG                  CODE 
 0001:C27C 00189H     MENU_V                 CODE 
 0001:C406 00466H     EAMENUINIT             CODE 
 0001:C86C 00060H     JCAL                   CODE 
 0001:C8CC 00031H     STARTPATH              CODE 
 0001:C8FE 00169H     JREMOVECOL             CODE 
 0001:CA68 000B4H     UOPEN                  CODE 
 0001:CB1C 000B6H     MASEMPTY               CODE 
 0001:CBD2 00034H     SEQHANDLE              CODE 
 0001:CC06 000C5H     MEMO2ARRAY             CODE 
 0001:CCCC 001BFH     MYCREDITS              CODE 
 0001:CE8C 00303H     UNBOX                  CODE 
 0001:D190 0005DH     FILESIZE               CODE 
 0001:D1EE 000A7H     JDBPOSITIO             CODE 
 0001:D296 0003EH     LEFTALIGN              CODE 
 0001:D2D4 00093H     JTEMPFILE              CODE 
 0001:D368 00025H     LOADCONFIG             CODE 
 0001:D38E 004FFH     JSAY                   CODE 
 0001:D88E 00030H     GINKEY                 CODE 
 0001:D8BE 00074H     FINDHEAD               CODE 
 0001:D932 00074H     FINDSUBHEA             CODE 
 0001:D9A6 000A7H     AMPM                   CODE 
 0001:DA4E 00123H     _JACSTARTD             CODE 
 0001:DB72 0008CH     STATICS$               CODE 
 0001:DBFE 00020H     STATICS$               CODE 
 0001:DC1E 00046H     STATICS$               CODE 
 0001:DC64 00020H     STATICS$               CODE 
 0001:DC84 00026H     STATICS$               CODE 
 0001:DCAA 00026H     STATICS$               CODE 
 0001:DCD0 0001EH     STATICS$               CODE 
 0001:DCEE 00020H     STATICS$               CODE 
 0001:DD0E 00040H     STATICS$               CODE 
 0001:DD4E 0001EH     STATICS$               CODE 
 0001:DD6C 00020H     STATICS$               CODE 
 0001:DD8C 00032H     STATICS$               CODE 
 0001:DDBE 00020H     STATICS$               CODE 
 0001:DDDE 00060H     STATICS$               CODE 
 0001:DE3E 00020H     STATICS$               CODE 
 0001:DE5E 00020H     STATICS$               CODE 
 0001:DE7E 00083H     STATICS$               CODE 
 0001:DF02 00034H     STATICS$               CODE 
 0001:DF36 00020H     STATICS$               CODE 
 0001:DF56 00081H     STATICS$               CODE 
 0001:DFD8 0004BH     STATICS$               CODE 
 0001:E024 00038H     STATICS$               CODE 
 0001:E05C 00020H     STATICS$               CODE 
 0001:E07C 0001EH     STATICS$               CODE 
 0001:E09A 00022H     STATICS$               CODE 
 0001:E0BC 00022H     STATICS$               CODE 
 0001:E0DE 00024H     STATICS$               CODE 
 0001:E102 00024H     STATICS$               CODE 
 0001:E126 00024H     STATICS$               CODE 
 0001:E14A 000EBH     STATICS$               CODE 
 0001:E236 000A7H     STATICS$               CODE 
 0001:E2DE 00030H     STATICS$               CODE 
 0001:E30E 000C4H     STATICS$               CODE 
 0001:E3D2 00036H     STATICS$               CODE 
 0001:E408 0001EH     STATICS$               CODE 
 0001:E426 0002EH     STATICS$               CODE 
 0001:E454 00022H     STATICS$               CODE 
 0001:E476 0010CH     STATICS$               CODE 
 0001:E582 00024H     STATICS$               CODE 
 0001:E5A6 00024H     STATICS$               CODE 
 0001:E5CA 0002AH     STATICS$               CODE 
 0001:E5F4 0004CH     STATICS$               CODE 
 0001:E640 0002AH     STATICS$               CODE 
 0001:E66A 0002CH     STATICS$               CODE 
 0001:E696 00024H     STATICS$               CODE 
 0001:E6BA 00022H     STATICS$               CODE 
 0001:E6DC 0002EH     STATICS$               CODE 
 0001:E70A 0002CH     STATICS$               CODE 
 0001:E736 0002CH     STATICS$               CODE 
 0001:E762 00022H     STATICS$               CODE 
 0001:E784 00022H     STATICS$               CODE 
 0001:E7A6 00022H     STATICS$               CODE 
 0001:E7C8 00047H     STATICS$               CODE 
 0001:E810 0001EH     STATICS$               CODE 
 0001:E82E 00054H     STATICS$               CODE 
 0001:E882 0054EH     STATICS$               CODE 
 0001:EDD0 00020H     STATICS$               CODE 
 0001:EDF0 0002CH     STATICS$               CODE 
 0001:EE1C 00024H     STATICS$               CODE 
 0001:EE40 0001EH     STATICS$               CODE 
 0001:EE5E 00433H     PULLMENU               CODE 
 0001:F292 00304H     PLCLOSEBOO             CODE 
 0001:F596 00042H     PLLCOLOR               CODE 
 0001:F5D8 00250H     MN_UTILS               CODE 
 0001:F828 0013FH     MN_ACENTRY             CODE 
 0001:F968 0016DH     MN_ACREPOR             CODE 
 0001:FAD6 000CAH     MN_ACDSHEE             CODE 
 0001:FBA0 00323H     MN_INV                 CODE 
 0002:0000 0036BH     MN_ACLISTA             CODE 
 0002:036C 00153H     CHNDATE                CODE 
 0002:04C0 0007DH     ENTR_DATE              CODE 
 0002:053E 0049FH     INVPOPMENU             CODE 
 0002:09DE 00401H     ACCPOPMENU             CODE 
 0002:0DE0 0007FH     ADMHELP                CODE 
 0002:0E60 001C4H     ENV_CHECK              CODE 
 0002:1024 00055H     BOOMUP                 CODE 
 0002:107A 0006FH     ASCPLUS3               CODE 
 0002:10EA 00079H     CHRMINUS4              CODE 
 0002:1164 002CDH     SRG100                 CODE 
 0002:1432 000DCH     RGSYS                  CODE 
 0002:150E 00022H     NOUSE                  CODE 
 0002:1530 0054CH     SYSREGISTE             CODE 
 0002:1A7C 0023EH     RGGENKEY               CODE 
 0002:1CBA 00173H     RGKEYANS               CODE 
 0002:1E2E 0002AH     MSTR                   CODE 
 0002:1E58 004BCH     REGDEMO                CODE 
 0002:2314 000C0H     MKRANDFILE             CODE 
 0002:23D4 0010DH     JBOOTNUM               CODE 
 0002:24E2 00AAFH     WHICHITEM              CODE 
 0002:2F92 0084EH     M_ADDITEM              CODE 
 0002:37E0 007F9H     M_EDITITEM             CODE 
 0002:3FDA 00367H     M_STDFORM              CODE 
 0002:4342 002EBH     MST_BCHANG             CODE 
 0002:462E 0003CH     ERRORSYS               CODE 
 0002:466A 00463H     DEFERROR               CODE 
 0002:4ACE 000F6H     ERRORMESSA             CODE 
 0002:4BC4 00744H     LOGERROR               CODE 
 0002:5308 0004EH     IFEMPTY                CODE 
 0002:5356 0016FH     PRINTERROR             CODE 
 0002:54C6 001A2H     CONVERTARG             CODE 
 0002:5668 0008EH     DOSERRCODE             CODE 
 0002:56F6 006F7H     DOSERRTEXT             CODE 
 0002:5DEE 00232H     GENCODETEX             CODE 
 0002:6020 00B00H     VS_CALC                CODE 
 0002:6B20 001EDH     C_DISPORD              CODE 
 0002:6D0E 001EDH     C_DISPHII              CODE 
 0002:6EFC 0004FH     C_WAITFOR              CODE 
 0002:6F4C 0002EH     COL1                   CODE 
 0002:6F7A 0002DH     COL2                   CODE 
 0002:6FA8 0002DH     COL3                   CODE 
 0002:6FD6 002B7H     SHOWPBAR               CODE 
 0002:728E 00062H     INCRPBAR               CODE 
 0002:72F0 00162H     REFRESHPBA             CODE 
 0002:7452 00097H     HIDEPBAR               CODE 
 0002:74EA 00039H     ISPBARACTI             CODE 
 0002:7524 000D4H     JRESETSETS             CODE 
 0002:75F8 000ACH     JRESTORESE             CODE 
 0002:76A4 00062H     PBARFILTER             CODE 
 0002:7706 00031H     SETPBARCOU             CODE 
 0002:7738 00053H     MAKEPBARAC             CODE 
 0002:778C 012A4H     ADDCOMPANY             CODE 
 0002:8A30 003B8H     SALES                  CODE 
 0002:8DE8 00169H     OPENDATAS              CODE 
 0002:8F52 0016CH     OPENDATAS              CODE 
 0002:90BE 00132H     OPENDATAS              CODE 
 0002:91F0 00135H     OPENDATAS              CODE 
 0002:9326 00274H     S_PAINTSCR             CODE 
 0002:959A 00738H     BILLEXIST              CODE 
 0002:9CD2 006D4H     BILLEXIST              CODE 
 0002:A3A6 0028BH     SAYITSTRIP             CODE 
 0002:A632 00815H     GETMENU                CODE 
 0002:AE48 004A0H     GETMENU                CODE 
 0002:B2E8 00B1CH     ADDNEW                 CODE 
 0002:BE04 007AAH     ADDNEW                 CODE 
 0002:C5AE 00260H     S_DELETEIT             CODE 
 0002:C80E 003B1H     S_DISPARRA             CODE 
 0002:CBC0 001BCH     GETHEADER              CODE 
 0002:CD7C 001BAH     GETHEADER              CODE 
 0002:CF36 003CBH     S_SAVEBILL             CODE 
 0002:D302 003F5H     DOACCOUNT              CODE 
 0002:D6F8 00209H     DOACCOUNT              CODE 
 0002:D902 000A3H     S_GETCUST              CODE 
 0002:D9A6 00214H     S_UNDOACC              CODE 
 0002:DBBA 00094H     S_UNDOITEM             CODE 
 0002:DC4E 0015CH     S_UNDOMAST             CODE 
 0002:DDAA 001DCH     S_CLEANUP              CODE 
 0002:DF86 00390H     S_CLRAC                CODE 
 0002:E316 00422H     S_UPDAC                CODE 
 0002:E738 01840H     TRN_PRINT              CODE 
 0003:0000 007B7H     TRN_PRINT              CODE 
 0003:07B8 003DFH     UPDSERIALS             CODE 
 0003:0B98 000C4H     PROFITALER             CODE 
 0003:0C5C 002F2H     S_INCRBATC             CODE 
 0003:0F4E 00269H     S_DECRBATC             CODE 
 0003:11B8 00063H     NEGBILL                CODE 
 0003:121C 00066H     NEGBILL                CODE 
 0003:1282 0004DH     CHANGED                CODE 
 0003:12D0 0004DH     CHANGED                CODE 
 0003:131E 00398H     PURCHASE               CODE 
 0003:16B6 00264H     P_PAINTSCR             CODE 
 0003:191A 003ECH     P_DELETEIT             CODE 
 0003:1D06 003B4H     P_DISPARRA             CODE 
 0003:20BA 002A9H     P_SAVEBILL             CODE 
 0003:2364 000A3H     P_GETSUP               CODE 
 0003:2408 00071H     P_UNDOACC              CODE 
 0003:247A 00097H     P_UNDOPRCH             CODE 
 0003:2512 0028FH     P_UNDOMAST             CODE 
 0003:27A2 00398H     P_CLRAC                CODE 
 0003:2B3A 0046AH     P_UPDAC                CODE 
 0003:2FA4 001FAH     P_CLEANUP              CODE 
 0003:319E 00144H     P_OKDEL                CODE 
 0003:32E2 0005DH     GOLASTBATC             CODE 
 0003:3340 003B1H     COSTREP                CODE 
 0003:36F2 008C5H     ITEM_REP               CODE 
 0003:3FB8 0036DH     PRICELIST1             CODE 
 0003:4326 0075FH     TRANS_REP              CODE 
 0003:4A86 00404H     SUP_COSTRE             CODE 
 0003:4E8A 0073AH     STBY_REP               CODE 
 0003:55C4 0033BH     ALLITEMS               CODE 
 0003:5900 002DBH     VIEWBATS               CODE 
 0003:5BDC 000A8H     DGITEMMAS              CODE 
 0003:5C84 0010FH     DGITEMREP              CODE 
 0003:5D94 006D3H     CUSTLIST               CODE 
 0003:6468 00654H     SUPLIST                CODE 
 0003:6ABC 00C7FH     SALE_REP               CODE 
 0003:773C 00AC9H     SYSSALEREP             CODE 
 0003:8206 00B8BH     AMOUNTWISE             CODE 
 0003:8D92 007A9H     PURCH_REP              CODE 
 0003:953C 00C7CH     PRCH_PARTY             CODE 
 0003:A1B8 00C70H     ACCVIEW                CODE 
 0003:AE28 008B4H     ADDACCOUNT             CODE 
 0003:B6DC 00836H     EDITACCOUN             CODE 
 0003:BF12 00193H     DAYREMARKS             CODE 
 0003:C0A6 000D4H     AC_CLOSED              CODE 
 0003:C17A 00025H     CLOSE_AC               CODE 
 0003:C1A0 00025H     OPEN_AC                CODE 
 0003:C1C6 00455H     DOCLOSE                CODE 
 0003:C61C 00095H     DOOPEN                 CODE 
 0003:C6B2 003C0H     REMARKSLIS             CODE 
 0003:CA72 00054H     STBRACNAME             CODE 
 0003:CAC6 00056H     STBROPBAL              CODE 
 0003:CB1C 00964H     SUBVIEW                CODE 
 0003:D480 00A6DH     DBKVIEW                CODE 
 0003:DEEE 0006DH     D_ACNAME               CODE 
 0003:DF5C 00799H     D_ADDVOUCH             CODE 
 0003:E6F6 001FCH     D_DELVOUCH             CODE 
 0003:E8F2 004B5H     D_VIEWVOUC             CODE 
 0003:EDA8 00A79H     BANKENTRY              CODE 
 0003:F822 00071H     FINDID                 CODE 
 0003:F894 00071H     B_ACNAME               CODE 
 0003:F906 00055H     C_INCOME               CODE 
 0003:F95C 00055H     C_INCOME               CODE 
 0003:F9B2 00055H     C_EXPENSE              CODE 
 0003:FA08 00055H     C_EXPENSE              CODE 
 0004:0000 007D8H     ADDENTRY               CODE 
 0004:07D8 007B7H     ADDENTRY               CODE 
 0004:0F90 0179DH     ADDENTRY               CODE 
 0004:272E 008B6H     EDITENTRY              CODE 
 0004:2FE4 00649H     EDITENTRY              CODE 
 0004:362E 00BF6H     CSHENTRY               CODE 
 0004:4224 00227H     RECOUNT                CODE 
 0004:444C 00101H     DECASH                 CODE 
 0004:454E 00101H     RECASH                 CODE 
 0004:4650 000B3H     C_ACNAME               CODE 
 0004:4704 000F2H     C_SUBAC                CODE 
 0004:47F6 00A5AH     VIEWCBOOK              CODE 
 0004:5250 009EFH     EDU_DPRN               CODE 
 0004:5C40 008FFH     D_GENERAL              CODE 
 0004:6540 00162H     CPYFOR                 CODE 
 0004:66A2 000D7H     REMINC                 CODE 
 0004:677A 00160H     SETPATHS               CODE 
 0004:68DA 00BC5H     LISTACS                CODE 
 0004:74A0 00EF2H     PRDGRPBAL              CODE 
 0004:8392 001D0H     DGALEDGER              CODE 
 0004:8562 00D8BH     LISTGROUP              CODE 
 0004:92EE 000A0H     _PUTAMOUNT             CODE 
 0004:938E 000E7H     SUBGRKEY               CODE 
 0004:9476 008C1H     CASHINOUT              CODE 
 0004:9D38 000D2H     GOCENTRY               CODE 
 0004:9E0A 00F0AH     TRIALBAL               CODE 
 0004:AD14 00ED2H     BSHEET                 CODE 
 0004:BBE6 00042H     _BTYPE                 CODE 
 0004:BC28 00111H     _BS_TYPE               CODE 
 0004:BD3A 00AAAH     BS_DISP                CODE 
 0004:C7E4 0029AH     BS_DRILL               CODE 
 0004:CA7E 000DAH     _BCOSTOFGO             CODE 
 0004:CB58 00143H     DAYSHEET               CODE 
 0004:CC9C 0085CH     INITALL                CODE 
 0004:D4F8 00400H     INITALL                CODE 
 0004:D8F8 00166H     DATEDAY                CODE 
 0004:DA5E 000CCH     DATEDAY                CODE 
 0004:DB2A 005D7H     LISTBANK               CODE 
 0004:E102 00573H     LISTBANK               CODE 
 0004:E676 004E5H     LISTCASH               CODE 
 0004:EB5C 004ADH     LISTCASH               CODE 
 0004:F00A 00113H     SIGNEDBY               CODE 
 0004:F11E 001E4H     SIGNEDBY               CODE 
 0004:F302 0079BH     LISTPS                 CODE 
 0005:0000 00817H     LISTPS                 CODE 
 0005:0818 003FDH     LISTDAY                CODE 
 0005:0C16 003E9H     LISTDAY                CODE 
 0005:1000 00368H     LISTSERV               CODE 
 0005:1368 0036BH     LISTSERV               CODE 
 0005:16D4 00388H     LISTQDAY               CODE 
 0005:1A5C 00798H     LISTQPS                CODE 
 0005:21F4 0018AH     SAYREMARKS             CODE 
 0005:237E 00194H     SAYREMARKS             CODE 
 0005:2512 0018FH     SAYQREMARK             CODE 
 0005:26A2 000E0H     GOODBYE                CODE 
 0005:2782 00109H     GOODBYE                CODE 
 0005:288C 00435H     TELLPROFIT             CODE 
 0005:2CC2 00090H     ORDBILL                CODE 
 0005:2D52 00090H     ORDOTH                 CODE 
 0005:2DE2 0033AH     LEDGER                 CODE 
 0005:311C 004D5H     L_INITLDG              CODE 
 0005:35F2 029AAH     RECALLLDG              CODE 
 0005:5F9C 00A44H     REPLDG                 CODE 
 0005:69E0 001E5H     SPLITDBK               CODE 
 0005:6BC6 001E9H     SPLITDBK               CODE 
 0005:6DB0 002B4H     CMBINELEDG             CODE 
 0005:7064 00A76H     REPDUES                CODE 
 0005:7ADA 00425H     SHOWREF                CODE 
 0005:7F00 000C7H     BKBAL                  CODE 
 0005:7FC8 000F8H     UTIL_MAS               CODE 
 0005:80C0 00437H     CLEARALL               CODE 
 0005:84F8 00430H     U_CLEARSTO             CODE 
 0005:8928 003F0H     U_SALEACCU             CODE 
 0005:8D18 00423H     U_PURCHACC             CODE 
 0005:913C 000EDH     U_DELDOTS              CODE 
 0005:922A 000D8H     U_CLEARSAC             CODE 
 0005:9302 00245H     U_UPDBATCH             CODE 
 0005:9548 005AFH     U_UPDSERVE             CODE 
 0005:9AF8 0052DH     DAYSMM                 CODE 
 0005:A026 000D0H     SMM_DOIT               CODE 
 0005:A0F6 00456H     COUNTCASH              CODE 
 0005:A54C 00DBAH     FILEREAD               CODE 
 0005:B306 00035H     FI_FBOT                CODE 
 0005:B33C 00032H     FI_FTOP                CODE 
 0005:B36E 000AAH     FI_TSKIP               CODE 
 0005:B418 0006CH     FRSEEK                 CODE 
 0005:B484 00066H     MARKED                 CODE 
 0005:B4EA 0006BH     MARKED                 CODE 
 0005:B556 00243H     DOCOPY                 CODE 
 0005:B79A 00182H     TOPRINT                CODE 
 0005:B91C 0010AH     TOFILE                 CODE 
 0005:BA26 000D1H     DIRECTGO               CODE 
 0005:BAF8 00B20H     FINPERIOD              CODE 
 0005:C618 0037CH     MAS_TOT                CODE 
 0005:C994 00535H     PRD_TOT                CODE 
 0005:CECA 00035H     INPERIOD               CODE 
 0005:CF00 0017FH     EA_PHONE               CODE 
 0005:D080 0035AH     ADDEDIT                CODE 
 0005:D3DA 0036BH     APPLYKEY               CODE 
 0005:D746 00C4CH     APPLYKEY               CODE 
 0005:E392 00219H     APPLYKEY               CODE 
 0005:E5AC 0026DH     APPLYKEY               CODE 
 0005:E81A 00136H     EDITCELL               CODE 
 0005:E950 00127H     EDITCELL               CODE 
 0005:EA78 003CBH     FINDNUM                CODE 
 0005:EE44 002EFH     DISPDIREC              CODE 
 0005:F134 004B8H     EA_APPTS               CODE 
 0005:F5EC 00726H     REFRS_VIEW             CODE 
 0006:0000 00403H     M_ADDREFRS             CODE 
 0006:0404 003E1H     M_EDITREFR             CODE 
 0006:07E6 00AC6H     VIEWINDACC             CODE 
 0006:12AC 006FBH     ADDEDITPAY             CODE 
 0006:19A8 00675H     CALENDAR               CODE 
 0006:201E 0053DH     CALBROWSE              CODE 
 0006:255C 000A4H     SKIPFUNC               CODE 
 0006:2600 000A0H     DISPWIN                CODE 
 0006:26A0 000DFH     DSPCALHEAD             CODE 
 0006:2780 000FFH     MAKCALARR              CODE 
 0006:2880 00041H     PADNUMBER              CODE 
 0006:28C2 0016BH     MOVEMONTH              CODE 
 0006:2A2E 000A1H     NUM2DATE               CODE 
 0006:2AD0 001B8H     LASTDAY                CODE 
 0006:2C88 00032H     FIRSTDAY               CODE 
 0006:2CBA 000D3H     WEEKSINMO              CODE 
 0006:2D8E 00059H     ABLOCK                 CODE 
 0006:2DE8 001D8H     SETMONTHST             CODE 
 0006:2FC0 003D3H     GETMONTH               CODE 
 0006:3394 00208H     GETYEAR                CODE 
 0006:359C 00387H     HELPSCR                CODE 
 0006:3924 004F7H     RPBROWSE               CODE 
 0006:3E1C 008C6H     RPNEW                  CODE 
 0006:46E2 00354H     RPDUES                 CODE 
 0006:4A36 004EDH     SBBROWSE               CODE 
 0006:4F24 007B7H     SBNEW                  CODE 
 0006:56DC 0043BH     SBDUES                 CODE 
 0006:5B18 00FF1H     APICK                  CODE 
 0006:6B0A 00099H     SHOWSTRING             CODE 
 0006:6BA4 0008DH     ASCAN2                 CODE 
 0006:6C32 0003CH     BUNGSTART              CODE 
 0006:6C6E 000C8H     BUNGOPTION             CODE 
 0006:6D36 00050H     BUNGEND                CODE 
 0006:6D86 0004AH     BUNGDROP               CODE 
 0006:6DD0 0002FH     BUNGUNDROP             CODE 
 0006:6E00 00090H     BUNGEE                 CODE 
 0006:6E90 01099H     MHANDLER               CODE 
 0006:7F2A 0006CH     LOGMENU                CODE 
 0006:7F96 000A0H     PAINTMENUB             CODE 
 0006:8036 000B8H     MREFBOX                CODE 
 0006:80EE 00585H     MENUDEF                CODE 
 0006:8674 00057H     ABLOCKP                CODE 
 0006:86CC 00536H     FIGUREBOX              CODE 
 0006:8C02 0006AH     FIGURETYPE             CODE 
 0006:8C6C 00164H     DRAWBOX                CODE 
 0006:8DD0 000D5H     REMOVEBOX              CODE 
 0006:8EA6 0002EH     RTVCOLOR               CODE 
 0006:8ED4 001A3H     MAKEDB                 CODE 
 0006:9078 0008BH     MAKECROSS              CODE 
 0006:9104 00042H     TOP_BAR_PO             CODE 
 0006:9146 00121H     MOUSEINBOX             CODE 
 0006:9268 000F2H     FIGURECROS             CODE 
 0006:935A 00032H     HIDE_MENU              CODE 
 0006:938C 0014DH     BUNGEEHIDE             CODE 
 0006:94DA 00110H     BUNGEESHOW             CODE 
 0006:95EA 00049H     BUNGEEQUIT             CODE 
 0006:9634 00049H     BUNGEETOP              CODE 
 0006:967E 00290H     MCOLORSET              CODE 
 0006:990E 000E8H     BUNGREDRAW             CODE 
 0006:99F6 002A1H     LINKS                  CODE 
 0006:9C98 0059AH     LINKBROWSE             CODE 
 0006:A232 002FCH     LNK_ADD                CODE 
 0006:A52E 001EEH     LNK_EDIT               CODE 
 0006:A71C 000A6H     PLINITCOMP             CODE 
 0006:A7C2 003E0H     LNK_1ADD               CODE 
 0006:ABA2 005B0H     LNK_GACS               CODE 
 0006:B152 00287H     LNK_TELLAC             CODE 
 0006:B3DA 00BC0H     PB_REPORT              CODE 
 0006:BF9A 00AE2H     PB_ILEDGER             CODE 
 0006:CA7C 007CDH     LNK_LED1               CODE 
 0006:D24A 0004BH     PB_IBALS               CODE 
 0006:D296 0004BH     LNK_LED2               CODE 
 0006:D2E2 00AB0H     CREATEUSER             CODE 
 0006:DD92 00317H     MANAGERLEV             CODE 
 0006:E0AA 01247H     SUP_SALES              CODE 
 0006:F2F2 007ABH     SUP_SPECIA             CODE 
 0006:FA9E 000B2H     SUMCM                  CODE 
 0006:FB50 000A9H     SUMEA                  CODE 
 0006:FBFA 002B7H     PRN_CASH               CODE 
 0006:FEB2 00034H     INTG_DATE              CODE 
 0007:0000 0065BH     INT_NOTCLO             CODE 
 0007:065C 002FBH     INT_LDATE              CODE 
 0007:0958 00183H     USERLEVEL              CODE 
 0007:0ADC 0063FH     WRITEBALS              CODE 
 0007:111C 00900H     YRCLOSE                CODE 
 0007:1A1C 0010EH     BGE_INIT               CODE 
 0007:1B2A 00032H     EXIT_BGE$              CODE 
 0007:1B5C 000A7H     BGE_POS                CODE 
 0007:1C04 00040H     BGE_DEBUG              CODE 
 0007:1C44 00061H     BGE_DSECON             CODE 
 0007:1CA6 00061H     BGE_SECOND             CODE 
 0007:1D08 00061H     BGE_TIMER              CODE 
 0007:1D6A 00088H     BGE_INTERV             CODE 
 0007:1DF2 00076H     BGE_RESETT             CODE 
 0007:1E68 00079H     BGE_START              CODE 
 0007:1EE2 0004EH     BGE_STOP               CODE 
 0007:1F30 00046H     BGE_AUTOAC             CODE 
 0007:1F76 00040H     BGE_MAINTI             CODE 
 0007:1FB6 00040H     BGE_EXECAL             CODE 
 0007:1FF6 0004BH     BGE_IDLEFU             CODE 
 0007:2042 0004BH     BGE_BRESTA             CODE 
 0007:208E 00093H     BGE_STALL              CODE 
 0007:2122 00053H     BGE_CLOACK             CODE 
 0007:2176 00064H     BGE_DECLOA             CODE 
 0007:21DA 0006FH     BGE_RESUME             CODE 
 0007:224A 000A2H     BGE_ONACT              CODE 
 0007:22EC 00272H     BGE_NEW                CODE 
 0007:255E 00050H     BGE_FINDBY             CODE 
 0007:25AE 0009AH     BGE_KILL               CODE 
 0007:2648 000F5H     BGE_POSLOC             CODE 
 0007:273E 00036H     BGE_POSUNL             CODE 
 0007:2774 0002CH     BGE_ARRAYU             CODE 
 0007:27A0 00074H     BGE_ARRAYL             CODE 
 0007:2814 00027H     BGE_RELEVE             CODE 
 0007:283C 0013FH     BGE_EXEC               CODE 
 0007:297C 00156H     BGE_BEXEC              CODE 
 0007:2AD2 00062H     BGE_RELEAS             CODE 
 0007:2B34 00061H     BGE_ACT                CODE 
 0007:2B96 00061H     BGE_DEACT              CODE 
 0007:2BF8 0004BH     BGE_EVENT              CODE 
 0007:2C44 0002CH     BGE_CLEAR              CODE 
 0007:2C70 0004DH     BGE_LOCKKE             CODE 
 0007:2CBE 00043H     DSECONDS               CODE 
 0007:2D02 0004CH     INKEY_ONID             CODE 
 0007:2D4E 00027H     INKEYEVENT             CODE 
 0007:2D76 00031H     RDDINIT$               CODE 
 0007:2DA8 00020H     RDDSYS                 CODE 
 0007:2DC8 0082AH     TB2HTML                CODE 
 0007:35F2 00064H     JPROCESS               CODE 
 0007:3656 006F4H     EDITCOMPAN             CODE 
 0007:3D4A 00458H     JINITREP               CODE 
 0007:41A2 00247H     JENDREPORT             CODE 
 0007:43EA 006A3H     JVIEWREPOR             CODE 
 0007:4A8E 0017BH     JADDDATA               CODE 
 0007:4C0A 000A1H     JREFDATA               CODE 
 0007:4CAC 000F8H     JFBOT                  CODE 
 0007:4DA4 00063H     JFTOP                  CODE 
 0007:4E08 0015BH     JFSKIP                 CODE 
 0007:4F64 000D4H     JGOREPORT              CODE 
 0007:5038 000E6H     JNEXTLINE              CODE 
 0007:511E 0006AH     MOVETOBRPO             CODE 
 0007:5188 0002EH     JREPWORKIN             CODE 
 0007:51B6 00313H     JDGPRINT               CODE 
 0007:54CA 00276H     JDGCOPY                CODE 
 0007:5740 0004EH     JDGREFPBAR             CODE 
 0007:578E 0004CH     JDGSETPBAR             CODE 
 0007:57DA 0003FH     JDGINCRPBA             CODE 
 0007:581A 001F1H     JDGSEARCH              CODE 
 0007:5A0C 001E8H     JDGPOPHELP             CODE 
 0007:5BF4 000BEH     DGLINE                 CODE 
 0007:5CB2 00074H     JNEWPBAR               CODE 
 0007:5D26 00044H     FEOF                   CODE 
 0007:5D6A 0078CH     JFINSTAT               CODE 
 0007:64F6 00690H     _JFINSTAT              CODE 
 0007:6B86 00552H     FIN_TOT                CODE 
 0007:70D8 00E1BH     PRINTCAPIT             CODE 
 0007:7EF4 00921H     CUSTSTOCKR             CODE 
 0007:8816 0006AH     DATEFIND               CODE 
 0007:8880 00148H     WHICHDIV               CODE 
 0007:89C8 0005DH     TELLIT                 CODE 
 0007:8A26 00F19H     SERVICE                CODE 
 0007:9940 00039H     TPROPER                CODE 
 0007:997A 0005FH     TIMEOK                 CODE 
 0007:99DA 0020BH     SRVPENDING             CODE 
 0007:9BE6 0058AH     UPDDBOOK               CODE 
 0007:A170 0008AH     EXACTCUST              CODE 
 0007:A1FA 00347H     _SAYSTAT               CODE 
 0007:A542 006E0H     SRV_REPORT             CODE 
 0007:AC22 00072H     SHOWSRVREF             CODE 
 0007:AC94 00762H     ASSETFLOW              CODE 
 0007:B3F6 00122H     WHATCOLOR              CODE 
 0007:B518 000D5H     M_STANDBY              CODE 
 0007:B5EE 000DDH     M_REPLACE              CODE 
 0007:B6CC 00033H     SETSP                  CODE 
 0007:B700 00039H     SP_VISOR               CODE 
 0007:B73A 000FEH     POP_MENU               CODE 
 0007:B838 00137H     VMEM_TEXT              CODE 
 0007:B970 00784H     BITMAP_TEXT            CODE 
 0007:C0F4 00531H     RL_TEXT                CODE 
 0007:C626 00143H     _RL_TEXT               CODE 
 0007:C76A 003D2H     CDXLOHI_TEXT           CODE 
 0007:CB3C 00000H     CHAR_TEXT              CODE 
 0007:CB3C 000B7H     DOUBLE_TEXT            CODE 
 0007:CBF4 0003AH     STRNCMP_TEXT           CODE 
 0007:CC2E 00256H     VALUE_TEXT             CODE 
 0007:CE84 0018EH     VALCVTST_TEXT          CODE 
 0007:D012 004AAH     OPTCVTOP_TEXT          CODE 
 0007:D4BC 0078AH     OPTRESOL_TEXT          CODE 
 0007:DC46 002DDH     OPTSIG_TEXT            CODE 
 0007:DF24 00477H     PTCLIP_TEXT            CODE 
 0007:E39C 002EBH     PTCVTSTR_TEXT          CODE 
 0007:E688 0017FH     PTEVAL_TEXT            CODE 
 0007:E808 0005FH     PTFUNNAM_TEXT          CODE 
 0007:E868 000CCH     PTLINK_TEXT            CODE 
 0007:E934 001D6H     PTMEM_TEXT             CODE 
 0007:EB0A 00200H     PTSEMANT_TEXT          CODE 
 0007:ED0A 00687H     PTTOKEN_TEXT           CODE 
 0007:F392 00067H     TABLEOPT_TEXT          CODE 
 0007:F3FA 006A0H     TIOPT_TEXT             CODE 
 0007:FA9A 00074H     RLSUPP_TEXT            CODE 
 0007:FB0E 00022H     RLCOUNT_TEXT           CODE 
 0007:FB30 00030H     RLGETFIL_TEXT          CODE 
 0007:FB60 0002BH     RLHASMAY_TEXT          CODE 
 0007:FB8C 00295H     RLMAYBE_TEXT           CODE 
 0007:FE22 000ECH     RLNEWQUE_TEXT          CODE 
 0007:FF0E 0006AH     RLSETFIL_TEXT          CODE 
 0008:0000 00161H     CM2STR                 CODE 
 0008:0162 0007CH     CMFILTER               CODE 
 0008:01DE 00045H     CMFILTCOUN             CODE 
 0008:0224 0002CH     CMCLRFILTE             CODE 
 0008:0250 0003CH     CMSETLINEA             CODE 
 0008:028C 00021H     CMGETLINEA             CODE 
 0008:02AE 00073H     CMDOLINEAR             CODE 
 0008:0322 00029H     COMIXINIT$             CODE 
 0008:034C 0001AH     COMIX                  CODE 
 0008:0366 00000H     CMXDYN_TEXT            CODE 
 0008:0366 000E3H     CMX0_TEXT              CODE 
 0008:044A 006A9H     RDD_TEXT               CODE 
 0008:0AF4 00188H     _RDD_TEXT              CODE 
 0008:0C7C 00944H     TI_TEXT                CODE 
 0008:15C0 003A9H     _TI_TEXT               CODE 
 0008:196A 001C7H     RG_TEXT                CODE 
 0008:1B32 00124H     _RG_TEXT               CODE 
 0008:1C56 00250H     TABLE_TEXT             CODE 
 0008:1EA6 00151H     _TABLE_TEXT            CODE 
 0008:1FF8 00415H     OBL_TEXT               CODE 
 0008:240E 0020BH     ORDERBAG_TEXT          CODE 
 0008:261A 000C1H     _ORDERBAG_TEXT         CODE 
 0008:26DC 00104H     _CDX_TEXT              CODE 
 0008:27E0 003B2H     CDX_TEXT               CODE 
 0008:2B92 00282H     CDXLOCK_TEXT           CODE 
 0008:2E14 0029FH     OBB_TEXT               CODE 
 0008:30B4 0039EH     ORDER_TEXT             CODE 
 0008:3452 002E8H     _ORDER_TEXT            CODE 
 0008:373A 00115H     ORDSCOPE_TEXT          CODE 
 0008:3850 0045BH     OINSERT_TEXT           CODE 
 0008:3CAC 007B7H     CDXNEW_TEXT            CODE 
 0008:4464 00869H     CDXTAG_TEXT            CODE 
 0008:4CCE 0050EH     _CDXTAG_TEXT           CODE 
 0008:51DC 001B0H     CDXITER_TEXT           CODE 
 0008:538C 00130H     BTREE_TEXT             CODE 
 0008:54BC 005BCH     CDXPAGE_TEXT           CODE 
 0008:5A78 00187H     _CDXPAGE_TEXT          CODE 
 0008:5C00 00544H     CDXLEAF_TEXT           CODE 
 0008:6144 007DDH     _CDXLEAF_TEXT          CODE 
 0008:6922 000BFH     STRING_TEXT            CODE 
 0008:69E2 00001H     BINVAL_TEXT            CODE 
 0008:69E4 001C7H     LIST_TEXT              CODE 
 0008:6BAC 00053H     LSNEW_TEXT             CODE 
 0008:6C00 0017DH     ITEM_TEXT              CODE 
 0008:6D7E 000D7H     BUFFER_TEXT            CODE 
 0008:6E56 001C8H     _BUFFER_TEXT           CODE 
 0008:701E 001BDH     CODEBLOCK_TEXT         CODE 
 0008:71DC 000C9H     _CODEBLOCK_TEXT        CODE 
 0008:72A6 000F1H     LSERROR_TEXT           CODE 
 0008:7398 000CEH     LSEXTEND_TEXT          CODE 
 0008:7466 00131H     LSEXT2_TEXT            CODE 
 0008:7598 0008DH     FNAME_TEXT             CODE 
 0008:7626 00038H     CMXDOS_TEXT            CODE 
 0008:765E 000CCH     CMXTABLE_TEXT          CODE 
 0008:772A 0022EH     CMXSCOPE_TEXT          CODE 
 0008:7958 0002CH     COMIXDBFI$             CODE 
 0008:7984 0001AH     COMIXDBF               CODE 
 0008:799E 00000H     CMXDBFDYN_TEXT         CODE 
 0008:799E 00046H     CMXDBF0_TEXT           CODE 
 0008:79E4 03294H     CMXDBF1_TEXT           CODE 
 0008:AC78 0050AH     CMXFPT_TEXT            CODE 
 0008:B182 00152H     CMXLOCK_TEXT           CODE 
 0008:B2D4 006A0H     ALLOC_TEXT             CODE 
 0008:B974 00316H     ASUPPORT_TEXT          CODE 
 0008:BC8A 02FEFH     _TEXT                  CODE 
 0008:EC7A 00013H     DBG_TEXT               CODE 
 0008:EC8D 003CDH     EVENT_DRIVER_TEXT      CODE 
 0008:F05A 009DEH     EXTEND_TEXT            CODE 
 0009:0000 0349FH     OM_TEXT                CODE 
 0009:34A0 017D7H     SORTOF_TEXT            CODE 
 0009:4C77 00033H     SYSCALL_TEXT           CODE 
 0009:4CAA 02D9AH     VM_TEXT                CODE 
 0009:7A44 00513H     VMAPI_TEXT             CODE 
 0009:7F57 014BAH     SCREEN_DRIVER_TEXT     CODE 
 0009:9412 00141H     MEMORY_TEXT            CODE 
 0009:9554 0012CH     TB_TEXT                CODE 
 0009:9680 00077H     WEEDBED_TEXT           CODE 
 0009:96F8 00017H     PPX1_TEXT              CODE 
 0009:9710 01CD2H     TBROWSE0_TEXT          CODE 
 0009:B3E2 01894H     TERM_TEXT              CODE 
 0009:CC76 00025H     ITOA_TEXT              CODE 
 0009:CC9C 0066CH     OUTSTD_TEXT            CODE 
 0009:D308 01D1AH     STACK_TEXT             CODE 
 0009:F022 00135H     DYNAMIC_TEXT           CODE 
 000A:0000 02694H     MACRO_TEXT             CODE 
 000A:2694 0221BH     PLANKTON_TEXT          CODE 
 000A:48B0 02008H     GETS2_TEXT             CODE 
 000A:68B8 00000H     SORTBLOC_TEXT          CODE 
 000A:68B8 00599H     FILESYS_TEXT           CODE 
 000A:6E52 00864H     DATE_TEXT              CODE 
 000A:76B6 00052H     OSDATE_TEXT            CODE 
 000A:7708 00914H     TXOPEN_TEXT            CODE 
 000A:801C 000D4H     GETENV_TEXT            CODE 
 000A:80F0 0051CH     DVC_TEXT               CODE 
 000A:860C 00034H     SQUAWK_TEXT            CODE 
 000A:8640 00276H     INITEXIT_TEXT          CODE 
 000A:88B6 0033CH     APPINIT_TEXT           CODE 
 000A:8BF2 00166H     APPEXIT_TEXT           CODE 
 000A:8D58 00030H     HARDINIT_TEXT          CODE 
 000A:8D88 0007CH     MAIN_TEXT              CODE 
 000A:8E04 00280H     UPREF_TEXT             CODE 
 000A:9084 0002CH     CLIPINIT$              CODE 
 000A:90B0 0001AH     SYSINIT                CODE 
 000A:90CA 00170H     RUN_TEXT               CODE 
 000A:923A 00E78H     EVENT_TEXT             CODE 
 000A:A0B2 00452H     DYNC_TEXT              CODE 
 000A:A504 00042H     DYNA_TEXT              CODE 
 000A:A546 00712H     SYMSYS_TEXT            CODE 
 000A:AC58 004D2H     FIELD_TEXT             CODE 
 000A:B12A 001BCH     CALL_TEXT              CODE 
 000A:B2E6 001EEH     FGET_TEXT              CODE 
 000A:B4D4 00AD6H     SEND_TEXT              CODE 
 000A:BFAA 005F2H     SET_TEXT               CODE 
 000A:C59C 01A42H     OPS_TEXT               CODE 
 000A:DFDE 000E4H     ADEL_TEXT              CODE 
 000A:E0C2 0003EH     ATAIL_TEXT             CODE 
 000A:E100 00234H     MRELEASE_TEXT          CODE 
 000A:E334 000CEH     __SETCENTU             CODE 
 000A:E402 00258H     ERRSYS0_TEXT           CODE 
 000A:E65A 0111CH     ERRSYS1_TEXT           CODE 
 000A:F776 001DCH     SEQ_TEXT               CODE 
 000A:F952 00182H     AEVAL_TEXT             CODE 
 000A:FAD4 001DDH     KMAP_TEXT              CODE 
 000A:FCB2 0024BH     SUBAL_TEXT             CODE 
 000A:FEFE 00065H     OSMEM_TEXT             CODE 
 000A:FF64 00004H     OSME_TEXT              CODE 
 000B:0000 000C0H     XMACRO_TEXT            CODE 
 000B:00C0 00280H     VBLOCK_TEXT            CODE 
 000B:0340 00712H     DYNX_TEXT              CODE 
 000B:0A52 0001DH     INSTD_TEXT             CODE 
 000B:0A70 01A3CH     GT_TEXT                CODE 
 000B:24AC 00186H     BOX_TEXT               CODE 
 000B:2632 00192H     TCVT_TEXT              CODE 
 000B:27C4 00020H     MAXROW_TEXT            CODE 
 000B:27E4 0071CH     COLOR_TEXT             CODE 
 000B:2F00 0001AH     SETCURS_TEXT           CODE 
 000B:2F1A 003DCH     SAVEREST_TEXT          CODE 
 000B:32F6 000DAH     SCROLL_TEXT            CODE 
 000B:33D0 0003BH     __SETHELPK             CODE 
 000B:340C 00FFCH     PICT_TEXT              CODE 
 000B:4408 00548H     GETS0_TEXT             CODE 
 000B:4950 00CE8H     GETS1_TEXT             CODE 
 000B:5638 0008DH     GETNEW                 CODE 
 000B:56C6 00021H     __GETHASFO             CODE 
 000B:56E8 0002CH     __GETBUFFE             CODE 
 000B:5714 0002CH     __GETORIGI             CODE 
 000B:5740 0002FH     __GETSETCA             CODE 
 000B:5770 00032H     __GETSETBL             CODE 
 000B:57A2 00032H     __GETSETNA             CODE 
 000B:57D4 00032H     __GETSETPI             CODE 
 000B:5806 00032H     __GETSETPB             CODE 
 000B:5838 00032H     __GETSETPR             CODE 
 000B:586A 00032H     __GETSETSU             CODE 
 000B:589C 00032H     __GETSETEX             CODE 
 000B:58CE 00032H     __GETSETRE             CODE 
 000B:5900 00035H     __GETSETBU             CODE 
 000B:5936 00060H     __GETBADDA             CODE 
 000B:5996 00042H     __GETUNDO              CODE 
 000B:59D8 0008CH     __GETTODEC             CODE 
 000B:5A64 0002CH     __GETDWLEF             CODE 
 000B:5A90 0003CH     READVAR                CODE 
 000B:5ACC 00047H     __ATPROMPT             CODE 
 000B:5B14 003C7H     __MENUTO               CODE 
 000B:5EDC 0062EH     ITEMAPI_TEXT           CODE 
 000B:650A 00042H     _DTXCONDSE             CODE 
 000B:654C 00034H     DBCREATEIN             CODE 
 000B:6580 00028H     DBSETINDEX             CODE 
 000B:65A8 00021H     DBCLEARIND             CODE 
 000B:65CA 00021H     DBREINDEX              CODE 
 000B:65EC 00044H     DBSETORDER             CODE 
 000B:6630 00021H     INDEXEXT               CODE 
 000B:6652 0004EH     INDEXKEY               CODE 
 000B:66A0 00710H     RDDORD_TEXT            CODE 
 000B:6DB0 00B1CH     RDDSVR_TEXT            CODE 
 000B:78CC 00626H     DBCMD0_TEXT            CODE 
 000B:7EF2 00374H     DBCMD2_TEXT            CODE 
 000B:8266 00418H     DBCMD3_TEXT            CODE 
 000B:867E 00106H     DBCMD5_TEXT            CODE 
 000B:8784 0013EH     DBJUNCT_TEXT           CODE 
 000B:88C2 0165CH     WORKAREA_TEXT          CODE 
 000B:9F1E 0028AH     DBSTRUCT_TEXT          CODE 
 000B:A1A8 0014BH     __DBLOCATE             CODE 
 000B:A2F4 00067H     __DBCONTIN             CODE 
 000B:A35C 000A3H     _DBCGENERR             CODE 
 000B:A400 000EFH     __DBCOPY               CODE 
 000B:A4F0 00108H     __DBAPP                CODE 
 000B:A5F8 000B1H     __FLEDIT               CODE 
 000B:A6AA 0003AH     FURBOF                 CODE 
 000B:A6E4 00BD6H     DISKIO_TEXT            CODE 
 000B:B2BA 004F6H     PHILES_TEXT            CODE 
 000B:B7B0 00016H     EMMALLOC_TEXT          CODE 
 000B:B7C6 00020H     EMMCONTX_TEXT          CODE 
 000B:B7E6 0003DH     EMMCOUNT_TEXT          CODE 
 000B:B824 00010H     EMMFREE_TEXT           CODE 
 000B:B834 00030H     EMMINST_TEXT           CODE 
 000B:B864 0001AH     EMMMAP_TEXT            CODE 
 000B:B87E 00019H     EMMPAGE_TEXT           CODE 
 000B:B898 00017H     EMMVERS_TEXT           CODE 
 000B:B8B0 00025H     DBGAPI_TEXT            CODE 
 000B:B8D6 002ECH     GETAPPLYKE             CODE 
 000B:BBC2 00102H     READMODAL              CODE 
 000B:BCC4 000A0H     GETREADER              CODE 
 000B:BD64 000A4H     GETPREVALI             CODE 
 000B:BE08 00112H     GETPOSTVAL             CODE 
 000B:BF1A 0007FH     GETDOSETKE             CODE 
 000B:BF9A 0016BH     SETTLE                 CODE 
 000B:C106 00232H     SETTLE                 CODE 
 000B:C338 0003EH     POSTACTIVE             CODE 
 000B:C376 00050H     POSTACTIVE             CODE 
 000B:C3C6 000A6H     CLEARGETSY             CODE 
 000B:C46C 000E2H     CLEARGETSY             CODE 
 000B:C54E 00077H     RESTOREGET             CODE 
 000B:C5C6 00098H     RESTOREGET             CODE 
 000B:C65E 00083H     GETREADVAR             CODE 
 000B:C6E2 00095H     GETREADVAR             CODE 
 000B:C778 00036H     __SETFORMA             CODE 
 000B:C7AE 00021H     __KILLREAD             CODE 
 000B:C7D0 00036H     GETACTIVE              CODE 
 000B:C806 00021H     UPDATED                CODE 
 000B:C828 0002DH     READEXIT               CODE 
 000B:C856 0002DH     READINSERT             CODE 
 000B:C884 00069H     SHOWSCOREB             CODE 
 000B:C8EE 0007FH     DATEMSG                CODE 
 000B:C96E 00104H     RANGECHECK             CODE 
 000B:CA72 00036H     READKILL               CODE 
 000B:CAA8 00036H     READUPDATE             CODE 
 000B:CADE 00036H     READFORMAT             CODE 
 000B:CB14 000FEH     EXACTCMP_TEXT          CODE 
 000B:CC12 007C5H     NATION_TEXT            CODE 
 000B:D3D8 00C62H     DBCMD1_TEXT            CODE 
 000B:E03A 0058CH     DBCREATE_TEXT          CODE 
 000B:E5C6 00096H     STRZERO                CODE 
 000B:E65C 000A6H     GETE_TEXT              CODE 
 000B:E702 000CCH     DISKSPAC_TEXT          CODE 
 000B:E7CE 00268H     COPYFILE_TEXT          CODE 
 000B:EA36 003E1H     EXAMPLEA_TEXT          CODE 
 000B:EE18 00120H     ALLTRIM_TEXT           CODE 
 000B:EF38 00114H     RIGHT_TEXT             CODE 
 000B:F04C 000E2H     RAT_TEXT               CODE 
 000B:F12E 00148H     PADL_TEXT              CODE 
 000B:F276 00146H     PADR_TEXT              CODE 
 000B:F3BC 00146H     PADC_TEXT              CODE 
 000B:F502 00006H     PAD_TEXT               CODE 
 000B:F508 00184H     IS_TEXT                CODE 
 000B:F68C 003E4H     STRTRAN_TEXT           CODE 
 000B:FA70 002A8H     STUFF_TEXT             CODE 
 000B:FD18 00091H     HARDCR_TEXT            CODE 
 000C:0000 002B0H     MEMOLINE_TEXT          CODE 
 000C:02B0 00156H     MLCOUNT_TEXT           CODE 
 000C:0406 001ECH     LINELEN_TEXT           CODE 
 000C:05F2 00158H     ASCAN_TEXT             CODE 
 000C:074A 003A4H     ASORT_TEXT             CODE 
 000C:0AEE 00043H     AFILL                  CODE 
 000C:0B32 00097H     ACLONE                 CODE 
 000C:0BCA 00021H     DEFPATH                CODE 
 000C:0BEC 00077H     __DEFPATH              CODE 
 000C:0C64 001A0H     ADIR                   CODE 
 000C:0E04 00480H     DIRECT_TEXT            CODE 
 000C:1284 02E90H     MEMOEDIT_TEXT          CODE 
 000C:4114 00026H     __TSETCARG             CODE 
 000C:413A 0007BH     __TSETCOLU             CODE 
 000C:41B6 0001FH     __TCARGO               CODE 
 000C:41D6 00026H     __TCOLUMN              CODE 
 000C:41FC 00020H     __TCOLCOUN             CODE 
 000C:421C 00054H     __TSETRTOP             CODE 
 000C:4270 00055H     __TSETRLEF             CODE 
 000C:42C6 0005DH     __TSETRBOT             CODE 
 000C:4324 0005CH     __TSETRRIG             CODE 
 000C:4380 0004AH     __TSETHEAD             CODE 
 000C:43CA 00049H     __TSETCOLS             CODE 
 000C:4414 0004AH     __TSETFOOT             CODE 
 000C:445E 00055H     __TSETCOLO             CODE 
 000C:44B4 0004CH     __TSETSKIP             CODE 
 000C:4500 0004DH     __TSETTOP              CODE 
 000C:454E 0004DH     __TSETBOTT             CODE 
 000C:459C 00033H     __TADDCOLU             CODE 
 000C:45D0 00055H     __TINSCOLU             CODE 
 000C:4626 00055H     __TDELCOLU             CODE 
 000C:467C 00126H     TBROWSENEW             CODE 
 000C:47A2 00047H     __CSETWIDT             CODE 
 000C:47EA 00047H     __CSETBLOC             CODE 
 000C:4832 0004AH     __CSETDEFC             CODE 
 000C:487C 0004CH     __CSETCOLO             CODE 
 000C:48C8 00049H     __CSETHEAD             CODE 
 000C:4912 00049H     __CSETFOOT             CODE 
 000C:495C 00054H     __CSETHSEP             CODE 
 000C:49B0 00054H     __CSETFSEP             CODE 
 000C:4A04 00053H     __CSETCOLS             CODE 
 000C:4A58 00032H     __CSETPICT             CODE 
 000C:4A8A 00079H     TBCOLUMNNE             CODE 
 000C:4B04 000A9H     SKIPPED                CODE 
 000C:4BAE 00078H     TBROWSEDB              CODE 
 000C:4C26 01460H     ACHOICE_TEXT           CODE 
 000C:6086 026F6H     TBROWSE1_TEXT          CODE 
 000C:877C 0005EH     DTX0_TEXT              CODE 
 000C:87DA 00000H     DTXDYN_TEXT            CODE 
 000C:87DA 00012H     NTXLOCK1_TEXT          CODE 
 000C:87EC 0003AH     INITHANDL$             CODE 
 000C:8826 0003FH     LOCKERRHAN             CODE 
 000C:8866 0001AH     _NTXERR                CODE 
 000C:8880 005E8H     BRIG_TEXT              CODE 
 000C:8E68 0002AH     DBFNTXINI$             CODE 
 000C:8E92 0001AH     DBFNTX                 CODE 
 000C:8EAC 05F74H     DTX1_TEXT              CODE 
 000C:EE20 0000BH     BEEP_TEXT              CODE 
 000C:EE2B 0037FH     KEYBD_DRIVER_TEXT      CODE 
 000C:F1AA 001D6H     BETWEEN_TEXT           CODE 
 000C:F380 000A7H     AASKIP                 CODE 
 000C:F428 00070H     ALENG                  CODE 
 000C:F498 00117H     AT2CHAR                CODE 
 000C:F5B0 000CEH     BLANKFIELD             CODE 
 000C:F67E 000ECH     BLANKREC               CODE 
 000C:F76A 00069H     ISBLANKREC             CODE 
 000C:F7D4 00091H     SBCENTER               CODE 
 000C:F866 0004EH     SBROWS                 CODE 
 000C:F8B4 0004EH     SBCOLS                 CODE 
 000C:F902 002D9H     SBSHADOW               CODE 
 000C:FBDC 0009CH     SBUNSHADOW             CODE 
 000C:FC78 000B7H     DAYSIN                 CODE 
 000C:FD30 000E1H     FMOVE2NEXT             CODE 
 000C:FE12 00177H     FMOVE2PREV             CODE 
 000D:0000 00177H     FMOVE2PRIO             CODE 
 000D:0178 000E7H     SFREADLINE             CODE 
 000D:0260 0006AH     GETDFP                 CODE 
 000D:02CA 0007AH     ISPART                 CODE 
 000D:0344 000D3H     ISVALFILE              CODE 
 000D:0418 0038DH     ALLOWED                CODE 
 000D:07A6 001A7H     POPEX                  CODE 
 000D:094E 0008BH     STRIPSKEL              CODE 
 000D:09DA 005A3H     POPREAD                CODE 
 000D:0F7E 00088H     PR_READ                CODE 
 000D:1006 00436H     P_READY                CODE 
 000D:143C 00041H     P_RDYDELAY             CODE 
 000D:147E 001E7H     PRNPORT                CODE 
 000D:1666 0007BH     PRNPSET                CODE 
 000D:16E2 000CBH     PROPER                 CODE 
 000D:17AE 000F7H     SATTCOLOR              CODE 
 000D:18A6 000C2H     SATTMONO               CODE 
 000D:1968 000E8H     SATTDIRECT             CODE 
 000D:1A50 00104H     SATTGETMEM             CODE 
 000D:1B54 00138H     SATTGET                CODE 
 000D:1C8C 00184H     SATTPUT                CODE 
 000D:1E10 0019BH     SATTPICK               CODE 
 000D:1FAC 001DBH     SATTPICKPU             CODE 
 000D:2188 001EAH     SATTPICKDE             CODE 
 000D:2372 0005AH     SATTPUSH               CODE 
 000D:23CC 000BEH     SATTPOP                CODE 
 000D:248A 00056H     SLS_ISCOLO             CODE 
 000D:24E0 0003CH     SLS_NORMCO             CODE 
 000D:251C 0003CH     SLS_NORMME             CODE 
 000D:2558 0003CH     SLS_POPCOL             CODE 
 000D:2594 0003CH     SLS_POPMEN             CODE 
 000D:25D0 0003CH     SLS_FRAME              CODE 
 000D:260C 0003CH     SLS_SHADAT             CODE 
 000D:2648 0003CH     SLS_SHADPO             CODE 
 000D:2684 0003CH     SLS_XPLODE             CODE 
 000D:26C0 0003CH     SLS_PRN                CODE 
 000D:26FC 0003CH     SLS_PRNC               CODE 
 000D:2738 00076H     SLS_QUERY              CODE 
 000D:27AE 00087H     SLS_BQUERY             CODE 
 000D:2836 00033H     SLS_BQZAP              CODE 
 000D:286A 00110H     ATT                    CODE 
 000D:297A 000BCH     POPMONTH               CODE 
 000D:2A36 004BBH     POPVDATE               CODE 
 000D:2EF2 003FDH     POPVYEAR               CODE 
 000D:32F0 000C5H     BRZUPDOWN              CODE 
 000D:33B6 00250H     MAKEBOX                CODE 
 000D:3606 003CAH     RAT_MENU2              CODE 
 000D:39D0 0017EH     SS_HBLINDS             CODE 
 000D:3B4E 0017EH     SS_VBLINDS             CODE 
 000D:3CCC 00261H     SS_SLICE               CODE 
 000D:3F2E 001EDH     SS_SPLIT               CODE 
 000D:411C 001D6H     SS_FOLD                CODE 
 000D:42F2 00181H     SS_RISE                CODE 
 000D:4474 0017FH     SS_FALL                CODE 
 000D:45F4 0003DH     FADEAWAY               CODE 
 000D:4632 000C1H     SS_FADE                CODE 
 000D:46F4 001A8H     SS_SLIDERI             CODE 
 000D:489C 001A8H     SS_SLIDELE             CODE 
 000D:4A44 00155H     SS_CLOSEH              CODE 
 000D:4B9A 00167H     SS_CLOSEV              CODE 
 000D:4D02 0020CH     SS_IMPLODE             CODE 
 000D:4F0E 00106H     SS_WIPEH               CODE 
 000D:5014 0010FH     SS_WIPEV               CODE 
 000D:5124 0003DH     SHIFTR                 CODE 
 000D:5162 004CDH     VERTVIEW               CODE 
 000D:5630 00084H     MACROTHIS              CODE 
 000D:56B4 0001DH     S_MOOSE                CODE 
 000D:56D2 002F4H     RAT_EVENT              CODE 
 000D:59C6 00074H     RAT_ELBHD              CODE 
 000D:5A3A 00074H     RAT_ERBHD              CODE 
 000D:5AAE 00024H     RAT_EQMROW             CODE 
 000D:5AD2 00024H     RAT_EQMCOL             CODE 
 000D:5AF6 0004FH     RAT_ISMOUS             CODE 
 000D:5B46 00024H     RAT_LASTEV             CODE 
 000D:5B6A 00049H     ISMOUSEAT              CODE 
 000D:5BB4 00083H     IFMOUSEHD              CODE 
 000D:5C38 000CBH     MOUSEHOTAT             CODE 
 000D:5D04 000A3H     MBRZCLICK              CODE 
 000D:5DA8 002B0H     MBRZMOVE               CODE 
 000D:6058 000F2H     MBRZFDATA              CODE 
 000D:614A 000F2H     MBRZLDATA              CODE 
 000D:623C 00044H     RAT_EHH                CODE 
 000D:6280 0003EH     RAT_EONKEY             CODE 
 000D:62BE 00024H     RAT_EONP               CODE 
 000D:62E2 00024H     RAT_EONL               CODE 
 000D:6306 00024H     RAT_EONV               CODE 
 000D:632A 0002FH     RAT_CHECKE             CODE 
 000D:635A 00057H     SLS_ISMOUS             CODE 
 000D:63B2 00024H     RAT_LMCODE             CODE 
 000D:63D6 00024H     RAT_RMCODE             CODE 
 000D:63FA 0032EH     S_SCRBUF_TEXT          CODE 
 000D:6728 00087H     AFIELDSTYP             CODE 
 000D:67B0 00083H     QFLDSTYPE              CODE 
 000D:6834 0005DH     AFIELDSX               CODE 
 000D:6892 0005DH     AFTYPESX               CODE 
 000D:68F0 0005DH     AFLENSX                CODE 
 000D:694E 0005DH     AFDECIX                CODE 
 000D:69AC 00078H     A2TOSING               CODE 
 000D:6A24 0027EH     BXX                    CODE 
 000D:6CA2 0002FH     CTRLW                  CODE 
 000D:6CD2 0006AH     DTOW                   CODE 
 000D:6D3C 0002FH     KBDESC                 CODE 
 000D:6D6C 0010DH     SADD_REC               CODE 
 000D:6E7A 000C1H     SNET_USE               CODE 
 000D:6F3C 000A0H     SREC_LOCK              CODE 
 000D:6FDC 0004CH     ISPRN_TEXT             CODE 
 000D:7028 002D4H     S_MOUSE_TEXT           CODE 
 000D:72FC 000BCH     ISFIELD                CODE 
 000D:73B8 00089H     ISTHISAREA             CODE 
 000D:7442 0003DH     EXPBLOCK               CODE 
 000D:7480 00076H     WORKBLOCK              CODE 
 000D:74F6 00059H     PARSALIAS              CODE 
 000D:7550 00056H     PARSFIELD              CODE 
 000D:75A6 00087H     FIELDTYPEX             CODE 
 000D:762E 00084H     FIELDLENX              CODE 
 000D:76B2 00084H     FIELDDECX              CODE 
 000D:7736 00063H     FIELDPOSX              CODE 
 000D:779A 00088H     DBSTRUCTX              CODE 
 000D:7822 0003CH     SLSF_REPOR             CODE 
 000D:785E 0003CH     SLSF_FORM              CODE 
 000D:789A 0003CH     SLSF_QUERY             CODE 
 000D:78D6 0003CH     SLSF_HELP              CODE 
 000D:7912 0003CH     SLSF_LIST              CODE 
 000D:794E 0003CH     SLSF_SCROL             CODE 
 000D:798A 0003CH     SLSF_COLOR             CODE 
 000D:79C6 0003CH     SLSF_TODO              CODE 
 000D:7A02 0003CH     SLSF_TDN1              CODE 
 000D:7A3E 0003CH     SLSF_TDN2              CODE 
 000D:7A7A 0003CH     SLSF_TDN3              CODE 
 000D:7AB6 0003CH     SLSF_APPT              CODE 
 000D:7AF2 0003CH     SLSF_LABEL             CODE 
 000D:7B2E 0003CH     SLSF_OLD               CODE 
 000D:7B6A 005FBH     SACHOICE               CODE 
 000D:8166 000D5H     AC_GOTO                CODE 
 000D:823C 00222H     RAT_READ               CODE 
 000D:845E 002B4H     RATREADER              CODE 
 000D:8712 003BBH     RATAPPLYKE             CODE 
 000D:8ACE 000C5H     RATPREVALI             CODE 
 000D:8B94 00142H     RATPOSTVAL             CODE 
 000D:8CD6 0009AH     RATDOSETKE             CODE 
 000D:8D70 0002AH     __KILLRATR             CODE 
 000D:8D9A 00045H     RATACTIVE              CODE 
 000D:8DE0 00027H     RATUPDATED             CODE 
 000D:8E08 00033H     RATEXIT                CODE 
 000D:8E3C 00033H     RATINSERT              CODE 
 000D:8E70 00045H     RATKILL                CODE 
 000D:8EB6 00045H     RATSETUPDA             CODE 
 000D:8EFC 00033H     R_GETPUSH              CODE 
 000D:8F30 0004BH     R_GETPOP               CODE 
 000D:8F7C 000E7H     GETJUMP2               CODE 
 000D:9064 00099H     R_ISRATREA             CODE 
 000D:90FE 0003EH     RRLASTKEY              CODE 
 000D:913C 0003EH     RRTHISGET              CODE 
 000D:917A 00052H     RRJUMP2                CODE 
 000D:91CC 0003EH     RRJUMPGET              CODE 
 000D:920A 002A7H     VIEWMEMOS              CODE 
 000D:94B2 00090H     VM_MUDF                CODE 
 000D:9542 0001DH     SHUFFL                 CODE 
 000D:9560 007BBH     SHUFFLE                CODE 
 000D:9D1C 0005AH     NURD                   CODE 
 000D:9D76 00289H     MMEMOEDIT              CODE 
 000D:A000 004DAH     __M34_GP               CODE 
 000D:A4DA 00047H     VS_ALERTES             CODE 
 000D:A522 0033DH     VS_ALERT               CODE 
 000D:A860 00265H     PROCBUTTON             CODE 
 000D:AAC6 00160H     DRAWBUTTON             CODE 
 000D:AC26 00048H     VS_MONO                CODE 
 000D:AC6E 00324H     VS_DEFPAL              CODE 
 000D:AF92 00057H     VS_TEXTSTD             CODE 
 000D:AFEA 00057H     VS_TEXTENH             CODE 
 000D:B042 00057H     VS_TEXTUNS             CODE 
 000D:B09A 00067H     VS_TEXTCOL             CODE 
 000D:B102 0004DH     VS_TXTCOLR             CODE 
 000D:B150 00058H     VS_WINDSTD             CODE 
 000D:B1A8 00057H     VS_WINDENH             CODE 
 000D:B200 00057H     VS_WINDUNS             CODE 
 000D:B258 00058H     VS_WINDBOX             CODE 
 000D:B2B0 00048H     VS_WINDSHD             CODE 
 000D:B2F8 0004CH     VS_BOXSTR              CODE 
 000D:B344 0004CH     VS_VBOXSTR             CODE 
 000D:B390 0006DH     VS_WNDCOLR             CODE 
 000D:B3FE 00067H     VS_WINDCOL             CODE 
 000D:B466 0004AH     VS_PALETTE             CODE 
 000D:B4B0 00221H     VS_SAVECOL             CODE 
 000D:B6D2 001CAH     VS_READCOL             CODE 
 000D:B89C 0041FH     VS_SAMPSCR             CODE 
 000D:BCBC 0071BH     VS_COLOR               CODE 
 000D:C3D8 00079H     VS_FG                  CODE 
 000D:C452 00078H     VS_BG                  CODE 
 000D:C4CA 004C0H     SNONWINDOW             CODE 
 000D:C98A 00AA9H     SWINDOW                CODE 
 000D:D434 000AAH     SCHG_FG                CODE 
 000D:D4DE 000AAH     SCHG_BG                CODE 
 000D:D588 0007DH     SCHG_BOX               CODE 
 000D:D606 0002AH     VS_ERROR               CODE 
 000D:D630 00065H     VS_ERRSET              CODE 
 000D:D696 00070H     VS_ERRINFO             CODE 
 000D:D706 00027H     VS_ERRLIST             CODE 
 000D:D72E 00064H     VS_GRABSCR             CODE 
 000D:D792 0010EH     VS_PUTSCRN             CODE 
 000D:D8A0 00047H     VS_DROPSCR             CODE 
 000D:D8E8 0004AH     VS_CFGFILE             CODE 
 000D:D932 000CCH     VS_INITVER             CODE 
 000D:D9FE 00063H     VS_VERSION             CODE 
 000D:DA62 001E3H     SMAKECFG               CODE 
 000D:DC46 00092H     VS_INKEY               CODE 
 000D:DCD8 00099H     VS_MSGDISP             CODE 
 000D:DD72 00094H     VS_MSGADD              CODE 
 000D:DE06 00099H     VS_MSGDEL              CODE 
 000D:DEA0 01915H     SDEFBLK                CODE 
 000D:F7B6 000DAH     SNETSTART              CODE 
 000D:F890 0005DH     SNETNOTYET             CODE 
 000D:F8EE 00047H     VS_NETTIME             CODE 
 000D:F936 0007EH     VS_FAKELOC             CODE 
 000D:F9B4 0016BH     VS_APPEND              CODE 
 000D:FB20 00150H     VS_FLOCK               CODE 
 000D:FC70 00150H     VS_RLOCK               CODE 
 000D:FDC0 0015AH     VS_OKBOX               CODE 
 000D:FF1A 00031H     VS_STUFF               CODE 
 000D:FF4C 0007BH     VS_DATETIM             CODE 
 000E:0000 00030H     VS_GETDATE             CODE 
 000E:0030 000B5H     VS_GETTIME             CODE 
 000E:00E6 0003FH     VS_ELAPDAY             CODE 
 000E:0126 00037H     VS_ELAPHOU             CODE 
 000E:015E 00037H     VS_ELAPMIN             CODE 
 000E:0196 00085H     VS_ELAPSEC             CODE 
 000E:021C 000DBH     VS_ADDSECS             CODE 
 000E:02F8 000DDH     VS_ADDMINS             CODE 
 000E:03D6 000DDH     VS_ADDHOUR             CODE 
 000E:04B4 000E5H     VS_ADDDAYS             CODE 
 000E:059A 00039H     VS_WAITSEC             CODE 
 000E:05D4 0024EH     VS_WIND                CODE 
 000E:0822 000C6H     VS_DIM                 CODE 
 000E:08E8 000FEH     VS_LBRACKE             CODE 
 000E:09E6 000FEH     VS_RBRACKE             CODE 
 000E:0AF0 0025FH     CODE                   CODE 
 000E:0D50 0003BH     CODE                   CODE 
 000E:0D90 000BCH     CODE                   CODE 
 000E:0E4C 0001CH     CLIPPER501             CODE 
 000E:0E68 002D5H     _NANFOR                CODE 
 000E:113E 00197H     _NANFOR                CODE 
 000E:12D6 001FFH     GWCOLOR2NU             CODE 
 000E:14D6 00121H     GWNUM2COLO             CODE 
 000E:15F8 00099H     GWDRIVE                CODE 
 000E:1692 00031H     GWENCRYPT              CODE 
 000E:16C4 00031H     GWDECRYPT              CODE 
 000E:16F6 000E2H     GWCRYPT                CODE 
 000E:17D8 0006EH     GWSAVEENV              CODE 
 000E:1846 000EDH     GWRESTENV              CODE 
 000E:1934 000DEH     _GWRESTENV             CODE 
 000E:1A12 0004BH     GWEXPLOSIO             CODE 
 000E:1A5E 0023EH     GWEXPLODE              CODE 
 000E:1C9C 000DDH     GWLOADFONT             CODE 
 000E:1D7A 000A2H     GWUSEFONTS             CODE 
 000E:1E1C 0006FH     GWSCANLINE             CODE 
 000E:1E8C 0003BH     GWRESETFON             CODE 
 000E:1EC8 0013EH     _CHHOTSPOT             CODE 
 000E:2006 000C1H     _CHHOTKEY              CODE 
 000E:20C8 0018BH     GWHOTSPOT              CODE 
 000E:2254 000DFH     GWDELSPOT              CODE 
 000E:2334 00035H     GWDELALLSP             CODE 
 000E:236A 00083H     GWCOOLSPOT             CODE 
 000E:23EE 00054H     GWCOOLALLS             CODE 
 000E:2442 00083H     GWWARMSPOT             CODE 
 000E:24C6 00054H     GWWARMALLS             CODE 
 000E:251A 00051H     GWSAVESPOT             CODE 
 000E:256C 00049H     GWRESTSPOT             CODE 
 000E:25B6 000FDH     GWPAINTSPO             CODE 
 000E:26B4 0004EH     GWMPOSITIO             CODE 
 000E:2702 00075H     GWMPRESENT             CODE 
 000E:2778 00089H     GWMUSE                 CODE 
 000E:2802 0008DH     GWMSETPOS              CODE 
 000E:2890 00056H     MSCROLL                CODE 
 000E:28E6 0005BH     MSETMODE               CODE 
 000E:2942 00049H     MSETPOS                CODE 
 000E:298C 00058H     MSAVESCREE             CODE 
 000E:29E4 00056H     MRESTSCREE             CODE 
 000E:2A3A 00092H     MQOUT                  CODE 
 000E:2ACC 0004AH     MQQOUT                 CODE 
 000E:2B16 0004DH     MDEVOUT                CODE 
 000E:2B64 00050H     MDEVOUTPIC             CODE 
 000E:2BB4 00059H     MDISPBOX               CODE 
 000E:2C0E 00047H     MDISPBEGIN             CODE 
 000E:2C56 00047H     MDISPEND               CODE 
 000E:2C9E 00158H     GWVGACOLOR             CODE 
 000E:2DF6 00074H     GWRPALREGS             CODE 
 000E:2E6A 0006CH     GWSPALREGS             CODE 
 000E:2ED6 000A5H     GWRDACREGS             CODE 
 000E:2F7C 000ADH     GWALLVGACO             CODE 
 000E:302A 0013FH     GWENABLECO             CODE 
 000E:316A 00059H     GWDISABLEC             CODE 
 000E:31C4 00027H     GWENABLED              CODE 
 000E:31EC 000C9H     GWGET1COLO             CODE 
 000E:32B6 001D1H     GWPWREADER             CODE 
 000E:3488 00073H     GWPWTRANS              CODE 
 000E:34FC 000D7H     GWPWDISP               CODE 
 000E:35D4 0009EH     GWRESTSCRE             CODE 
 000E:3672 00184H     GWIMPLODE              CODE 
 000E:37F6 000E4H     GWSAVESCRE             CODE 
 000E:38DA 001ABH     GWSHADOWBO             CODE 
 000E:3A86 0004BH     GWSHADOWHE             CODE 
 000E:3AD2 00189H     GWDRAWSHAD             CODE 
 000E:3C5C 000B5H     GWPAINTBOX             CODE 
 000E:3D12 0007BH     GWSIZE                 CODE 
 000E:3D8E 000F2H     GWUSESPECI             CODE 
 000E:3E80 000E3H     GWREADFONT             CODE 
 000E:3F64 00045H     GWSPEED                CODE 
 000E:3FAA 0006CH     _GWSPEED               CODE 
 000E:4016 00029H     GWISMONO               CODE 
 000E:4040 0002BH     GWISCGA                CODE 
 000E:406C 0002BH     GWISEGA                CODE 
 000E:4098 0002BH     GWISVGA                CODE 
 000E:40C4 00115H     GWWAITKEY              CODE 
 000E:41DA 00085H     GWSCREENSA             CODE 
 000E:4260 00048H     GWMDBLCLIC             CODE 
 000E:42A8 002A4H     GWMWAIT                CODE 
 000E:454C 00110H     GWACTION               CODE 
 000E:465C 00027H     GWLASTKEY              CODE 
 000E:4684 005BDH     GWASK                  CODE 
 000E:4C42 00372H     MENU                   CODE 
 000E:4FB4 0003FH     _SHOWOPTIO             CODE 
 000E:4FF4 00069H     NOTALLOWED             CODE 
 000E:505E 000A7H     _SUPPOSEMS             CODE 
 000E:5106 0020DH     GWCOPYFILE             CODE 
 000E:5314 00158H     COPY1FILE              CODE 
 000E:546C 0005FH     GWCHDIR                CODE 
 000E:54CC 0005AH     GWMKDIR                CODE 
 000E:5526 0005CH     GWRMDIR                CODE 
 000E:5582 00274H     DISPERROR              CODE 
 000E:57F6 0019FH     GWGETDIR               CODE 
 000E:5996 000E2H     CONSTRUCTD             CODE 
 000E:5A78 00061H     ADDPATH                CODE 
 000E:5ADA 000E1H     REMOVEDIRF             CODE 
 000E:5BBC 001AEH     GWMESSAGE              CODE 
 000E:5D6A 00183H     GWSTATUSBA             CODE 
 000E:5EEE 00115H     BOX_TITLE              CODE 
 000E:6004 006B8H     COLORPAL               CODE 
 000E:66BC 0009EH     COLORSAMPL             CODE 
 000E:675A 000B8H     COLOR_N2S              CODE 
 000E:6812 00123H     COLOR_S2N              CODE 
 000E:6936 000D2H     COLORSET               CODE 
 000E:6A08 00182H     COLORINIT              CODE 
 000E:6B8A 00A9FH     COLORMOD               CODE 
 000E:762A 00245H     SHOWCOLORS             CODE 
 000E:7870 00029H     GFMINIT$               CODE 
 000E:789A 00029H     GFMEXIT$               CODE 
 000E:78C4 00020H     GFMOUSE                CODE 
 000E:78E4 00074H     GILLIGAN               CODE 
 000E:7958 004D8H     INDEXBAR               CODE 
 000E:7E30 00160H     GFSHOWBAR              CODE 
 000E:7F90 00087H     GFRAND                 CODE 
 000E:8018 000C4H     GFSAVEENV              CODE 
 000E:80DC 00112H     GFRESTENV              CODE 
 000E:81EE 00292H     SHADOWBOX              CODE 
 000E:8480 00628H     YES_NO2                CODE 
 000E:8AA8 003ABH     GFMOUSE_TEXT           CODE 
 000E:8E54 0007BH     GX_TEXT                CODE 
 000E:8ED0 00095H     _GRUMP                 CODE 
 000E:8F66 00057H     FT_RESTSET             CODE 
 000E:8FBE 00040H     FT_SETCENT             CODE 
 000E:8FFE 00398H     FT_XBOX                CODE 
 000E:9396 00030H     _FTSAY                 CODE 
 000E:93C6 0006BH     FT_SAVESET             CODE 
 000E:9432 000B0H     ONIDLE_TEXT            CODE 
 000E:94E2 0009DH     CPUTYPE_TEXT           CODE 
 000E:957F 00085H     CRIT_TEXT              CODE 
 000E:9604 00044H     SEGDPMI_TEXT           CODE 
 000E:9648 0003DH     U2HEX_TEXT             CODE 
 000E:9685 00147H     NUMBOOT_TEXT           CODE 
 000E:97CC 0022BH     VARIOS_TEXT            CODE 
 000E:99F7 00152H     EXTEN_TEXT             CODE 
 000E:9B4A 0008AH     AJFONT                 CODE 
 000E:9BD4 007BDH     _FONTCODE              CODE 
 000E:A392 0008EH     AJINIT                 CODE 
 000E:A420 000E6H     FLIB_01                CODE 
 000E:A506 01B64H     FNTLIB_01              CODE 
 000E:C06A 01C64H     FNTLIB_01              CODE 
 000E:DCCE 01B50H     FNTLIB_02              CODE 
 000F:0000 01B4DH     FNTLIB_02              CODE 
 000F:1B4E 01BB2H     FNTLIB_03              CODE 
 000F:3700 01B61H     FNTLIB_03              CODE 
 000F:5262 01B0AH     FNTLIB_04              CODE 
 000F:6D6C 01B5EH     FNTLIB_04              CODE 
 000F:88CA 01B4DH     FNTLIB_05              CODE 
 000F:A418 01ABEH     FNTLIB_05              CODE 
 000F:BED6 01B4DH     FNTLIB_06              CODE 
 000F:DA24 01AD5H     FNTLIB_06              CODE 
 0010:0000 01B39H     FNTLIB_07              CODE 
 0010:1B3A 01AB1H     FNTLIB_07              CODE 
 0010:35EC 01B19H     FNTLIB_08              CODE 
 0010:5106 01BB5H     FNTLIB_08              CODE 
 0010:6CBC 01B19H     FNTLIB_09              CODE 
 0010:87D6 01AB3H     FNTLIB_09              CODE 
 0010:A28A 01B61H     FNTLIB_10              CODE 
 0010:BDEC 01ABEH     FNTLIB_10              CODE 
 0010:D8AA 01B61H     FNTLIB_11              CODE 
 0011:0000 018CCH     FNTLIB_11              CODE 
 0011:18CC 01B84H     FNTLIB_12              CODE 
 0011:3450 01AA1H     FNTLIB_12              CODE 
 0011:4EF2 01AE6H     FNTLIB_13              CODE 
 0011:69D8 01B6EH     FNTLIB_13              CODE 
 0011:8546 01B5EH     FNTLIB_14              CODE 
 0011:A0A4 01AD9H     FNTLIB_14              CODE 
 0011:BB7E 01B5EH     FNTLIB_15              CODE 
 0011:D6DC 01AC2H     FNTLIB_15              CODE 
 0012:0000 01BB6H     FNTLIB_16              CODE 
 0012:1BB6 01AD6H     FNTLIB_16              CODE 
 0012:368C 01ABAH     FNTLIB_17              CODE 
 0012:5146 01A96H     FNTLIB_17              CODE 
 0012:6BDC 01A4BH     FNTLIB_18              CODE 
 0012:8628 01AB9H     FNTLIB_18              CODE 
 0012:A0E2 01AE2H     FNTLIB_19              CODE 
 0012:BBC4 01B8EH     FNTLIB_19              CODE 
 0012:D752 01B39H     FNTLIB_20              CODE 
 0013:0000 01AA3H     FNTLIB_20              CODE 
 0013:1AA4 000E6H     FLIB_02                CODE 
 0013:1B8A 01B64H     FNTLIB_21              CODE 
 0013:36EE 01A9EH     FNTLIB_21              CODE 
 0013:518C 01AEBH     FNTLIB_22              CODE 
 0013:6C78 01AAEH     FNTLIB_22              CODE 
 0013:8726 01C43H     FNTLIB_23              CODE 
 0013:A36A 01AB4H     FNTLIB_23              CODE 
 0013:BE1E 01AD3H     FNTLIB_24              CODE 
 0013:D8F2 01B03H     FNTLIB_24              CODE 
 0014:0000 01ADDH     FNTLIB_25              CODE 
 0014:1ADE 01BB2H     FNTLIB_25              CODE 
 0014:3690 01ABDH     FNTLIB_26              CODE 
 0014:514E 01B7EH     FNTLIB_26              CODE 
 0014:6CCC 01A53H     FNTLIB_27              CODE 
 0014:8720 01B7EH     FNTLIB_28              CODE 
 0014:A29E 01B74H     FNTLIB_29              CODE 
 0014:BE12 01B1BH     FNTLIB_30              CODE 
 0014:D92E 01B40H     FNTLIB_31              CODE 
 0015:0000 01AA2H     FNTLIB_32              CODE 
 0015:1AA2 01B64H     FNTLIB_33              CODE 
 0015:3606 01B61H     FNTLIB_34              CODE 
 0015:5168 01B11H     FNTLIB_35              CODE 
 0015:6C7A 01BDDH     FNTLIB_36              CODE 
 0015:8858 01B37H     FNTLIB_37              CODE 
 0015:A390 01AE9H     FNTLIB_38              CODE 
 0015:BE7A 013A4H     FNTLIB_39              CODE 
 0015:D21E 01CAEH     FNTLIB_40              CODE 
 0015:EECC 00122H     FLIB_03                CODE 
 0015:EFEE 00033H     BLICALC50              CODE 
 0015:F022 00028H     BLIMEMAVL              CODE 
 0015:F04A 00026H     BLIMEMMAX              CODE 
 0015:F070 0001AH     BLPRFPRG               CODE 
 0015:F08A 00653H     BLERRC50               CODE 
 0015:F6DE 001ADH     BLIERROR               CODE 
 0015:F88C 00186H     ACOPY_TEXT             CODE 
 0015:FA12 000F4H     AINS_TEXT              CODE 
 0016:0000 005B8H     MSAVE_TEXT             CODE 
 0016:05B8 000E4H     _EINSTVAR              CODE 
 0016:069C 001D2H     ERRORAPI_TEXT          CODE 
 0016:086E 0009AH     VMAPIY_TEXT            CODE 
 0016:0908 037C4H     DBF1_TEXT              CODE 
 0016:40CC 00046H     DBF0_TEXT              CODE 
 0016:4112 00000H     DBFDYN_TEXT            CODE 
 0016:4112 00027H     DBFINIT$               CODE 
 0016:413A 0001AH     DBFONLY                CODE 
 0016:4154 001D2H     NET_TEXT               CODE 
 0016:4326 0035FH     MOUSE_DRIVER_TEXT      CODE 
 0016:4686 00088H     GWAJOIN                CODE 
 0016:470E 0007DH     GWSTANDARD             CODE 
 0016:478C 0007DH     GWENHANCED             CODE 
 0016:480A 0007DH     GWBORDER               CODE 
 0016:4888 0007DH     GWUNSELECT             CODE 
 0016:4906 000BAH     GWSPLITCOL             CODE 
 0016:49C0 00026H     GWCRLF                 CODE 
 0016:49E6 000E6H     FINDPATH               CODE 
 0016:4ACC 0008CH     FULLNAME               CODE 
 0016:4B58 00089H     GWSLOSH                CODE 
 0016:4BE2 000F8H     GWWHATISTH             CODE 
 0017:0000 00016H     $$$OVLDYN              CODE                   BLICLPMGR
 0018:0000 00000H     C_ETEXT                ENDCODE 
 0018:0000 02468H     $$$KRNCDE              BLIKRNMGR              BLIKRNMGR
 0018:2468 008B0H     $$$KRNDAT              BLIKRNMGR              BLIKRNMGR
 0018:2D20 00040H     $$$KRNINI              BLIKRNMGR              BLIKRNMGR
 0018:2D60 00000H     $$$KRNEXI              BLIKRNMGR              BLIKRNMGR
 0018:2D60 00000H     $$$KRNEND              BLIKRNMGR              BLIKRNMGR
 0019:0000 00000H     _SYMSTART              SYMSTART 
 0019:0000 019F0H     SYMBOLS                SYMBOLS 
 0019:19F0 003C0H     SYMBOLS                SYMBOLS 
 0019:1DB0 000F0H     SYMBOLS                SYMBOLS 
 0019:1EA0 00210H     SYMBOLS                SYMBOLS 
 0019:20B0 001D0H     SYMBOLS                SYMBOLS 
 0019:2280 000C0H     SYMBOLS                SYMBOLS 
 0019:2340 000F0H     SYMBOLS                SYMBOLS 
 0019:2430 00070H     SYMBOLS                SYMBOLS 
 0019:24A0 002E0H     SYMBOLS                SYMBOLS 
 0019:2780 001E0H     SYMBOLS                SYMBOLS 
 0019:2960 000A0H     SYMBOLS                SYMBOLS 
 0019:2A00 00020H     SYMBOLS                SYMBOLS 
 0019:2A20 00030H     SYMBOLS                SYMBOLS 
 0019:2A50 00010H     SYMBOLS                SYMBOLS 
 0019:2A60 00120H     SYMBOLS                SYMBOLS 
 0019:2B80 00090H     SYMBOLS                SYMBOLS 
 0019:2C10 00090H     SYMBOLS                SYMBOLS 
 0019:2CA0 000B0H     SYMBOLS                SYMBOLS 
 0019:2D50 00140H     SYMBOLS                SYMBOLS 
 0019:2E90 00120H     SYMBOLS                SYMBOLS 
 0019:2FB0 00000H     SYMBOLS                SYMBOLS 
 0019:2FB0 000C0H     SYMBOLS                SYMBOLS 
 0019:3070 00110H     SYMBOLS                SYMBOLS 
 0019:3180 00030H     SYMBOLS                SYMBOLS 
 0019:31B0 00170H     SYMBOLS                SYMBOLS 
 0019:3320 000D0H     SYMBOLS                SYMBOLS 
 0019:33F0 000F0H     SYMBOLS                SYMBOLS 
 0019:34E0 00160H     SYMBOLS                SYMBOLS 
 0019:3640 000A0H     SYMBOLS                SYMBOLS 
 0019:36E0 000C0H     SYMBOLS                SYMBOLS 
 0019:37A0 00030H     SYMBOLS                SYMBOLS 
 0019:37D0 000C0H     SYMBOLS                SYMBOLS 
 0019:3890 00260H     SYMBOLS                SYMBOLS 
 0019:3AF0 000C0H     SYMBOLS                SYMBOLS 
 0019:3BB0 00060H     SYMBOLS                SYMBOLS 
 0019:3C10 00050H     SYMBOLS                SYMBOLS 
 0019:3C60 001C0H     SYMBOLS                SYMBOLS 
 0019:3E20 00120H     SYMBOLS                SYMBOLS 
 0019:3F40 000F0H     SYMBOLS                SYMBOLS 
 0019:4030 002A0H     SYMBOLS                SYMBOLS 
 0019:42D0 00050H     SYMBOLS                SYMBOLS 
 0019:4320 00060H     SYMBOLS                SYMBOLS 
 0019:4380 00000H     SYMBOLS                SYMBOLS 
 0019:4380 000F0H     SYMBOLS                SYMBOLS 
 0019:4470 00130H     SYMBOLS                SYMBOLS 
 0019:45A0 000C0H     SYMBOLS                SYMBOLS 
 0019:4660 00020H     SYMBOLS                SYMBOLS 
 0019:4680 00000H     SYMBOLS                SYMBOLS 
 0019:4680 00020H     SYMBOLS                SYMBOLS 
 0019:46A0 00000H     SYMBOLS                SYMBOLS 
 0019:46A0 00090H     SYMBOLS                SYMBOLS 
 0019:4730 00040H     SYMBOLS                SYMBOLS 
 0019:4770 00040H     SYMBOLS                SYMBOLS 
 0019:47B0 00020H     SYMBOLS                SYMBOLS 
 0019:47D0 00000H     SYMBOLS                SYMBOLS 
 0019:47D0 00020H     SYMBOLS                SYMBOLS 
 0019:47F0 00000H     SYMBOLS                SYMBOLS 
 0019:47F0 00020H     SYMBOLS                SYMBOLS 
 0019:4810 00220H     SYMBOLS                SYMBOLS 
 0019:4A30 00010H     SYMBOLS                SYMBOLS 
 0019:4A40 00040H     SYMBOLS                SYMBOLS 
 0019:4A80 000B0H     SYMBOLS                SYMBOLS 
 0019:4B30 00020H     SYMBOLS                SYMBOLS 
 0019:4B50 000C0H     SYMBOLS                SYMBOLS 
 0019:4C10 00010H     SYMBOLS                SYMBOLS 
 0019:4C20 002B0H     SYMBOLS                SYMBOLS 
 0019:4ED0 00000H     SYMBOLS                SYMBOLS 
 0019:4ED0 00000H     SYMBOLS                SYMBOLS 
 0019:4ED0 00020H     SYMBOLS                SYMBOLS 
 0019:4EF0 00000H     SYMBOLS                SYMBOLS 
 0019:4EF0 002A0H     SYMBOLS                SYMBOLS 
 0019:5190 00010H     SYMBOLS                SYMBOLS 
 0019:51A0 00030H     SYMBOLS                SYMBOLS 
 0019:51D0 00030H     SYMBOLS                SYMBOLS 
 0019:5200 00000H     SYMBOLS                SYMBOLS 
 0019:5200 00000H     SYMBOLS                SYMBOLS 
 0019:5200 00000H     SYMBOLS                SYMBOLS 
 0019:5200 00070H     SYMBOLS                SYMBOLS 
 0019:5270 00020H     SYMBOLS                SYMBOLS 
 0019:5290 00000H     SYMBOLS                SYMBOLS 
 0019:5290 00010H     SYMBOLS                SYMBOLS 
 0019:52A0 00010H     SYMBOLS                SYMBOLS 
 0019:52B0 00000H     SYMBOLS                SYMBOLS 
 0019:52B0 00000H     SYMBOLS                SYMBOLS 
 0019:52B0 00000H     SYMBOLS                SYMBOLS 
 0019:52B0 00010H     SYMBOLS                SYMBOLS 
 0019:52C0 00040H     SYMBOLS                SYMBOLS 
 0019:5300 00030H     SYMBOLS                SYMBOLS 
 0019:5330 00030H     SYMBOLS                SYMBOLS 
 0019:5360 00020H     SYMBOLS                SYMBOLS 
 0019:5380 00000H     SYMBOLS                SYMBOLS 
 0019:5380 00220H     SYMBOLS                SYMBOLS 
 0019:55A0 00050H     SYMBOLS                SYMBOLS 
 0019:55F0 00000H     SYMBOLS                SYMBOLS 
 0019:55F0 00040H     SYMBOLS                SYMBOLS 
 0019:5630 00010H     SYMBOLS                SYMBOLS 
 0019:5640 00000H     SYMBOLS                SYMBOLS 
 0019:5640 000D0H     SYMBOLS                SYMBOLS 
 0019:5710 00030H     SYMBOLS                SYMBOLS 
 0019:5740 00220H     SYMBOLS                SYMBOLS 
 0019:5960 00060H     SYMBOLS                SYMBOLS 
 0019:59C0 00000H     SYMBOLS                SYMBOLS 
 0019:59C0 00000H     SYMBOLS                SYMBOLS 
 0019:59C0 00000H     SYMBOLS                SYMBOLS 
 0019:59C0 00000H     SYMBOLS                SYMBOLS 
 0019:59C0 00000H     SYMBOLS                SYMBOLS 
 0019:59C0 00000H     SYMBOLS                SYMBOLS 
 0019:59C0 00000H     SYMBOLS                SYMBOLS 
 0019:59C0 000B0H     SYMBOLS                SYMBOLS 
 0019:5A70 000E0H     SYMBOLS                SYMBOLS 
 0019:5B50 00020H     SYMBOLS                SYMBOLS 
 0019:5B70 001B0H     SYMBOLS                SYMBOLS 
 0019:5D20 00020H     SYMBOLS                SYMBOLS 
 0019:5D40 00040H     SYMBOLS                SYMBOLS 
 0019:5D80 00020H     SYMBOLS                SYMBOLS 
 0019:5DA0 00070H     SYMBOLS                SYMBOLS 
 0019:5E10 002B0H     SYMBOLS                SYMBOLS 
 0019:60C0 00040H     SYMBOLS                SYMBOLS 
 0019:6100 00020H     SYMBOLS                SYMBOLS 
 0019:6120 00040H     SYMBOLS                SYMBOLS 
 0019:6160 00000H     SYMBOLS                SYMBOLS 
 0019:6160 00070H     SYMBOLS                SYMBOLS 
 0019:61D0 00050H     SYMBOLS                SYMBOLS 
 0019:6220 00000H     SYMBOLS                SYMBOLS 
 0019:6220 00000H     SYMBOLS                SYMBOLS 
 0019:6220 000B0H     SYMBOLS                SYMBOLS 
 0019:62D0 00030H     SYMBOLS                SYMBOLS 
 0019:6300 00010H     SYMBOLS                SYMBOLS 
 0019:6310 00020H     SYMBOLS                SYMBOLS 
 0019:6330 00010H     SYMBOLS                SYMBOLS 
 0019:6340 00010H     SYMBOLS                SYMBOLS 
 0019:6350 00080H     SYMBOLS                SYMBOLS 
 0019:63D0 00070H     SYMBOLS                SYMBOLS 
 0019:6440 00050H     SYMBOLS                SYMBOLS 
 0019:6490 000E0H     SYMBOLS                SYMBOLS 
 0019:6570 00010H     SYMBOLS                SYMBOLS 
 0019:6580 00050H     SYMBOLS                SYMBOLS 
 0019:65D0 00010H     SYMBOLS                SYMBOLS 
 0019:65E0 000A0H     SYMBOLS                SYMBOLS 
 0019:6680 000A0H     SYMBOLS                SYMBOLS 
 0019:6720 00030H     SYMBOLS                SYMBOLS 
 0019:6750 00010H     SYMBOLS                SYMBOLS 
 0019:6760 00000H     SYMBOLS                SYMBOLS 
 0019:6760 00050H     SYMBOLS                SYMBOLS 
 0019:67B0 00010H     SYMBOLS                SYMBOLS 
 0019:67C0 00030H     SYMBOLS                SYMBOLS 
 0019:67F0 00020H     SYMBOLS                SYMBOLS 
 0019:6810 00030H     SYMBOLS                SYMBOLS 
 0019:6840 00010H     SYMBOLS                SYMBOLS 
 0019:6850 00050H     SYMBOLS                SYMBOLS 
 0019:68A0 00080H     SYMBOLS                SYMBOLS 
 0019:6920 00030H     SYMBOLS                SYMBOLS 
 0019:6950 00060H     SYMBOLS                SYMBOLS 
 0019:69B0 00090H     SYMBOLS                SYMBOLS 
 0019:6A40 00000H     SYMBOLS                SYMBOLS 
 0019:6A40 00000H     SYMBOLS                SYMBOLS 
 0019:6A40 00020H     SYMBOLS                SYMBOLS 
 0019:6A60 00090H     SYMBOLS                SYMBOLS 
 0019:6AF0 00020H     SYMBOLS                SYMBOLS 
 0019:6B10 00060H     SYMBOLS                SYMBOLS 
 0019:6B70 00060H     SYMBOLS                SYMBOLS 
 0019:6BD0 00000H     SYMBOLS                SYMBOLS 
 0019:6BD0 00020H     SYMBOLS                SYMBOLS 
 0019:6BF0 00010H     SYMBOLS                SYMBOLS 
 0019:6C00 00010H     SYMBOLS                SYMBOLS 
 0019:6C10 00020H     SYMBOLS                SYMBOLS 
 0019:6C30 00000H     SYMBOLS                SYMBOLS 
 0019:6C30 00010H     SYMBOLS                SYMBOLS 
 0019:6C40 00000H     SYMBOLS                SYMBOLS 
 0019:6C40 00020H     SYMBOLS                SYMBOLS 
 0019:6C60 00000H     SYMBOLS                SYMBOLS 
 0019:6C60 00030H     SYMBOLS                SYMBOLS 
 0019:6C90 00030H     SYMBOLS                SYMBOLS 
 0019:6CC0 00140H     SYMBOLS                SYMBOLS 
 0019:6E00 00140H     SYMBOLS                SYMBOLS 
 0019:6F40 001A0H     SYMBOLS                SYMBOLS 
 0019:70E0 00050H     SYMBOLS                SYMBOLS 
 0019:7130 00080H     SYMBOLS                SYMBOLS 
 0019:71B0 00020H     SYMBOLS                SYMBOLS 
 0019:71D0 00020H     SYMBOLS                SYMBOLS 
 0019:71F0 00000H     SYMBOLS                SYMBOLS 
 0019:71F0 00040H     SYMBOLS                SYMBOLS 
 0019:7230 00000H     SYMBOLS                SYMBOLS 
 0019:7230 00010H     SYMBOLS                SYMBOLS 
 0019:7240 00000H     SYMBOLS                SYMBOLS 
 0019:7240 00000H     SYMBOLS                SYMBOLS 
 0019:7240 00000H     SYMBOLS                SYMBOLS 
 0019:7240 00000H     _SYMEND                SYMEND 
 0019:7240 00000H     _CONST                 CONST 
 0019:7240 001A2H     OPERR                  CONST 
 0019:73E2 00000H     _MSG                   MSG 
 0019:73E2 00000H     _BEGBSS                BEGBSS 
 0019:73E2 00000H     _ENDBSS                ENDBSS 
 001A:0000 00000H     DMTB                   DLL                    DMT_GROUP
 001A:0000 0001CH     DMT                    DLL                    DMT_GROUP
 001A:001C 00000H     DMTE                   DLL                    DMT_GROUP
 001B:0000 00076H     CMX0_DATA1             FAR_DATA 
 001B:0076 01B9EH     MACRO5_DATA            FAR_DATA 
 001C:0000 00000H     $$DYNBEGIN             $$DYNBEGIN             DYNGROUP
 001C:0000 00088H     $$DYNFNAMES            $$DYNFNAMES            DYNGROUP
 001C:0090 00000H     $$DYNBPAGES            $$DYNPAGES             DYNGROUP
 001C:0090 00000H     $$DYNPAGES             $$DYNPAGES             DYNGROUP
 001C:0090 00000H     $$DYNEND               $$DYNEND               DYNGROUP
 001D:0000 00000H     _CSYSTART              CSYSTART 
 001D:0000 0001CH     _CSYDATA               CSYDATA 
 001D:001C 00000H     _CSYEND                CSYEND 
 001E:0000 00042H     NULL                   BEGDATA                DGROUP
 001E:0042 055C4H     _DATA                  DATA                   DGROUP
 001E:5606 00000H     _SYMPB                 DATA                   DGROUP
 001E:5606 00020H     _SYMP                  DATA                   DGROUP
 001E:5626 00000H     _SYMPE                 DATA                   DGROUP
 001E:5626 00000H     CONST2                 DATA                   DGROUP
 001E:5626 00000H     XNCB                   DATA                   DGROUP
 001E:5626 00028H     XNC                    DATA                   DGROUP
 001E:564E 00000H     XNCE                   DATA                   DGROUP
 001E:564E 0000EH     CDATA                  DATA                   DGROUP
 001E:565C 00000H     XIFB                   DATA                   DGROUP
 001E:565C 00004H     XIF                    DATA                   DGROUP
 001E:5660 00000H     XIFE                   DATA                   DGROUP
 001E:5660 00000H     XIB                    DATA                   DGROUP
 001E:5660 00004H     XI                     DATA                   DGROUP
 001E:5664 00000H     XIE                    DATA                   DGROUP
 001E:5664 00000H     XPB                    DATA                   DGROUP
 001E:5664 00000H     XP                     DATA                   DGROUP
 001E:5664 00000H     XPE                    DATA                   DGROUP
 001E:5664 00000H     XCB                    DATA                   DGROUP
 001E:5664 00000H     XC                     DATA                   DGROUP
 001E:5664 00000H     XCE                    DATA                   DGROUP
 001E:5664 00000H     XCFB                   DATA                   DGROUP
 001E:5664 00000H     XCF                    DATA                   DGROUP
 001E:5664 00000H     XCFE                   DATA                   DGROUP
 001E:5670 00148H     $LIB_TABLE             DATA                   DGROUP
 001E:57C0 0000AH     DATA                   DATA                   DGROUP
 001E:57D0 0007CH     _FONTDATA              DATA                   DGROUP
 001E:584C 000D8H     CONST                  CONST                  DGROUP
 001E:5924 00176H     MSG                    MSG                    DGROUP
 001E:5A9A 00008H     HDR                    MSG                    DGROUP
 001E:5AA2 00027H     PAD                    MSG                    DGROUP
 001E:5AC9 00001H     EPAD                   MSG                    DGROUP
 001E:5ACA 004E2H     _BSS                   BSS                    DGROUP
 001E:5FAC 00000H     XOB                    BSS                    DGROUP
 001E:5FAC 00000H     XO                     BSS                    DGROUP
 001E:5FAC 00000H     XOE                    BSS                    DGROUP
 001E:5FB0 0003CH     C_COMMON               BSS                    DGROUP
 001E:5FF0 01C00H     STACK                  STACK                  DGROUP

 Origin    Group
 0017:0000 BLICLPMGR
 0018:0000 BLIKRNMGR
 001A:0000 DMT_GROUP
 001C:0000 DYNGROUP
 001E:0000 DGROUP

  Address         Publics by Value

 0000:0000  Abs  __START_SYM
 0000:9876  Abs  __FLTUSED
 0000:9876  Abs  __ACRTMSG
 0000:9876  Abs  __ACRTUSED
 0001:0000  Res  LOGO
 0001:0E22  Res  JPICK
 0001:10F2  Res  DISPSCRN
 0001:1360  Res  TELLOUT
 0001:14FE  Res  CONFIRM
 0001:1576  Res  ONTASK
 0001:15F2  Res  JGETDATA
 0001:1DAA  Res  MSG
 0001:1FF2  Res  BIGELEM
 0001:2056  Res  JSFILT
 0001:2264  Res  MCHOICE
 0001:2D50  Res  MESSYN
 0001:2F98  Res  OPCONFIRM
 0001:30A8  Res  CLEANUP
 0001:313A  Res  SAYVERTI
 0001:31C0  Res  LEADCHAR
 0001:320C  Res  J_GETMEMO
 0001:3418  Res  INWORDS
 0001:37CE  Res  PRN_RESET
 0001:3836  Res  PRN_LQ
 0001:388E  Res  PRN_DRAFT
 0001:38E6  Res  PRN_BIGCHA
 0001:393E  Res  PRN_SMALLC
 0001:3F7A  Res  INDEXFILES
 0001:48E4  Res  INVRT_CLR
 0001:4920  Res  BOXGETCOLO
 0001:4964  Res  BOXCOLOR
 0001:49A0  Res  YBOXCOLOR
 0001:4A38  Res  NBOXCOLOR
 0001:4A6A  Res  MENUCOLOR
 0001:4A9C  Res  NONCOLOR
 0001:4ADE  Res  GETCOLOR
 0001:4B5E  Res  SCRCOLOR
 0001:4B9C  Res  MSGCOLOR
 0001:4BD8  Res  LINECOLOR
 0001:4C14  Res  BROWCOLOR
 0001:4C50  Res  FOOTLINE
 0001:4E48  Res  MESSAGE
 0001:4E7C  Res  STOCKENTRY
 0001:4EB2  Res  U_GETPASS
 0001:5708  Res  U_1SCRAMBL
 0001:579C  Res  U_2SCRAMBL
 0001:5848  Res  DIR
 0001:59F6  Res  JSETDEFAUL
 0001:5AD8  Res  CHECKCLOSE
 0001:5B78  Res  PRNCHECK
 0001:5C6C  Res  OPENBOOKS
 0001:5DFA  Res  OPENED
 0001:5EC0  Res  OPENDIR
 0001:5F82  Res  CLOSEDATAS
 0001:61BC  Res  EXITASSUP
 0001:6236  Res  EXPAND
 0001:62B8  Res  CHANGECOMP
 0001:6B80  Res  DOWNCLOSE
 0001:6BBE  Res  OPENALL
 0001:6CC0  Res  CLOSEALL
 0001:6DC2  Res  REQINV
 0001:6E82  Res  REQSERV
 0001:6F42  Res  SCRCENTER
 0001:6FE0  Res  JALERT
 0001:74CE  Res  JSAVEENV
 0001:769E  Res  JRESTENV
 0001:798A  Res  PLSWAIT
 0001:7B6E  Res  FPASSWORD
 0001:7CD8  Res  JENCRYPT
 0001:7DC0  Res  JDECRYPT
 0001:8A00  Res  POP_HELP
 0001:8E56  Res  USERNAME
 0001:8E80  Res  USER
 0001:8EA8  Res  DISPUSER
 0001:8F4E  Res  UNAME
 0001:8FC8  Res  SAMEUSER
 0001:9040  Res  CHNPWORD
 0001:9748  Res  JDDIR
 0001:979C  Res  ABOUTME
 0001:9A70  Res  MOVELR
 0001:9C34  Res  PWORDLIST
 0001:9DE4  Res  XBXX
 0001:A176  Res  ENCSRL
 0001:A22E  Res  JRANDOM
 0001:A29C  Res  ARMENU
 0001:A870  Res  MEMORY_REF
 0001:A8BE  Res  OPENUSERS
 0001:A9E2  Res  LOGINFO
 0001:AA86  Res  JRLOCK
 0001:ACC0  Res  JRUNLOCK
 0001:ACEE  Res  JFLOCK
 0001:AF1C  Res  EUSE
 0001:B206  Res  NETDRIVE
 0001:B22E  Res  DATADIR
 0001:B28E  Res  NOZERO
 0001:B2D2  Res  HOBRANCH
 0001:B48C  Res  VS_USE
 0001:B724  Res  SAYTITLES
 0001:B846  Res  DGTITLES
 0001:B94A  Res  ISDIRPRESE
 0001:BA1A  Res  JGETDATE
 0001:BB84  Res  JSETFONT
 0001:BCBC  Res  INITAJFONT
 0001:BD86  Res  SYSSTATUS
 0001:BE58  Res  GODOS
 0001:BF4A  Res  C_LOADIT
 0001:C050  Res  CHN_COLOR
 0001:C136  Res  ASM_DONOTH
 0001:C22C  Res  JLMSG
 0001:C27C  Res  MENU_V
 0001:C406  Res  EAMENUINIT
 0001:C86C  Res  JCAL
 0001:C8CC  Res  STARTPATH
 0001:CA68  Res  UOPEN
 0001:CB1C  Res  MASEMPTY
 0001:CC06  Res  MEMO2ARRAY
 0001:CCCC  Res  MYCREDITS
 0001:CE8C  Res  UNBOX
 0001:D190  Res  FILESIZE
 0001:D1EE  Res  JDBPOSITIO
 0001:D296  Res  LEFTALIGN
 0001:D2D4  Res  JTEMPFILE
 0001:D38E  Res  JSAY
 0001:D88E  Res  GINKEY
 0001:D8BE  Res  FINDHEAD
 0001:D932  Res  FINDSUBHEA
 0001:D9A6  Res  AMPM
 0001:DA4E  Res  _JACSTARTD
 0001:EE5E  Res  PULLMENU
 0001:F596  Res  PLLCOLOR
 0002:036C  Res  CHNDATE
 0002:04C0  Res  ENTR_DATE
 0002:053E  Res  INVPOPMENU
 0002:09DE  Res  ACCPOPMENU
 0002:0E60  Res  ENV_CHECK
 0002:107A  Res  ASCPLUS3
 0002:10EA  Res  CHRMINUS4
 0002:150E  Res  NOUSE
 0002:1A7C  Res  RGGENKEY
 0002:1CBA  Res  RGKEYANS
 0002:2314  Res  MKRANDFILE
 0002:23D4  Res  JBOOTNUM
 0002:24E2  Res  WHICHITEM
 0002:462E  Res  ERRORSYS
 0002:6020  Res  VS_CALC
 0002:6F4C  Res  COL1
 0002:6F7A  Res  COL2
 0002:6FA8  Res  COL3
 0002:6FD6  Res  SHOWPBAR
 0002:728E  Res  INCRPBAR
 0002:72F0  Res  REFRESHPBA
 0002:7452  Res  HIDEPBAR
 0002:74EA  Res  ISPBARACTI
 0002:7524  Res  JRESETSETS
 0002:75F8  Res  JRESTORESE
 0002:76A4  Res  PBARFILTER
 0002:7706  Res  SETPBARCOU
 0002:7738  Res  MAKEPBARAC
 0002:778C  Res  ADDCOMPANY
 0002:8A30  Res  SALES
 0003:131E  Res  PURCHASE
 0003:3340  Res  COSTREP
 0003:36F2  Res  ITEM_REP
 0003:3FB8  Res  PRICELIST1
 0003:4326  Res  TRANS_REP
 0003:4A86  Res  SUP_COSTRE
 0003:4E8A  Res  STBY_REP
 0003:55C4  Res  ALLITEMS
 0003:5900  Res  VIEWBATS
 0003:5BDC  Res  DGITEMMAS
 0003:5C84  Res  DGITEMREP
 0003:5D94  Res  CUSTLIST
 0003:6468  Res  SUPLIST
 0003:6ABC  Res  SALE_REP
 0003:773C  Res  SYSSALEREP
 0003:8206  Res  AMOUNTWISE
 0003:8D92  Res  PURCH_REP
 0003:953C  Res  PRCH_PARTY
 0003:A1B8  Res  ACCVIEW
 0003:AE28  Res  ADDACCOUNT
 0003:B6DC  Res  EDITACCOUN
 0003:BF12  Res  DAYREMARKS
 0003:C0A6  Res  AC_CLOSED
 0003:C17A  Res  CLOSE_AC
 0003:C1A0  Res  OPEN_AC
 0003:C1C6  Res  DOCLOSE
 0003:C61C  Res  DOOPEN
 0003:C6B2  Res  REMARKSLIS
 0003:CB1C  Res  SUBVIEW
 0003:D480  Res  DBKVIEW
 0003:DEEE  Res  D_ACNAME
 0003:EDA8  Res  BANKENTRY
 0003:F822  Res  FINDID
 0003:F894  Res  B_ACNAME
 0003:F95C  Res  C_INCOME
 0003:FA08  Res  C_EXPENSE
 0004:362E  Res  CSHENTRY
 0004:4650  Res  C_ACNAME
 0004:4704  Res  C_SUBAC
 0004:47F6  Res  VIEWCBOOK
 0004:5250  Res  EDU_DPRN
 0004:6540  Res  CPYFOR
 0004:66A2  Res  REMINC
 0004:68DA  Res  LISTACS
 0004:74A0  Res  PRDGRPBAL
 0004:8392  Res  DGALEDGER
 0004:8562  Res  LISTGROUP
 0004:938E  Res  SUBGRKEY
 0004:9476  Res  CASHINOUT
 0004:9E0A  Res  TRIALBAL
 0004:AD14  Res  BSHEET
 0004:CB58  Res  DAYSHEET
 0005:288C  Res  TELLPROFIT
 0005:2CC2  Res  ORDBILL
 0005:2D52  Res  ORDOTH
 0005:2DE2  Res  LEDGER
 0005:7ADA  Res  SHOWREF
 0005:7FC8  Res  UTIL_MAS
 0005:913C  Res  U_DELDOTS
 0005:9AF8  Res  DAYSMM
 0005:A026  Res  SMM_DOIT
 0005:A54C  Res  FILEREAD
 0005:B91C  Res  TOFILE
 0005:BAF8  Res  FINPERIOD
 0005:C618  Res  MAS_TOT
 0005:C994  Res  PRD_TOT
 0005:CECA  Res  INPERIOD
 0005:CF00  Res  EA_PHONE
 0005:EA78  Res  FINDNUM
 0005:F134  Res  EA_APPTS
 0005:F5EC  Res  REFRS_VIEW
 0006:07E6  Res  VIEWINDACC
 0006:12AC  Res  ADDEDITPAY
 0006:19A8  Res  CALENDAR
 0006:201E  Res  CALBROWSE
 0006:26A0  Res  DSPCALHEAD
 0006:2780  Res  MAKCALARR
 0006:2880  Res  PADNUMBER
 0006:28C2  Res  MOVEMONTH
 0006:2A2E  Res  NUM2DATE
 0006:2AD0  Res  LASTDAY
 0006:2C88  Res  FIRSTDAY
 0006:2CBA  Res  WEEKSINMO
 0006:2D8E  Res  ABLOCK
 0006:3924  Res  RPBROWSE
 0006:46E2  Res  RPDUES
 0006:4A36  Res  SBBROWSE
 0006:56DC  Res  SBDUES
 0006:5B18  Res  APICK
 0006:6C32  Res  BUNGSTART
 0006:6C6E  Res  BUNGOPTION
 0006:6D36  Res  BUNGEND
 0006:6D86  Res  BUNGDROP
 0006:6DD0  Res  BUNGUNDROP
 0006:6E00  Res  BUNGEE
 0006:80EE  Res  MENUDEF
 0006:938C  Res  BUNGEEHIDE
 0006:94DA  Res  BUNGEESHOW
 0006:95EA  Res  BUNGEEQUIT
 0006:9634  Res  BUNGEETOP
 0006:990E  Res  BUNGREDRAW
 0006:99F6  Res  LINKS
 0006:D24A  Res  PB_IBALS
 0006:D296  Res  LNK_LED2
 0006:D2E2  Res  CREATEUSER
 0006:DD92  Res  MANAGERLEV
 0006:E0AA  Res  SUP_SALES
 0006:F2F2  Res  SUP_SPECIA
 0006:FEB2  Res  INTG_DATE
 0007:0958  Res  USERLEVEL
 0007:1B5C  Res  BGE_POS
 0007:1C04  Res  BGE_DEBUG
 0007:1D6A  Res  BGE_INTERV
 0007:1E68  Res  BGE_START
 0007:1EE2  Res  BGE_STOP
 0007:1F30  Res  BGE_AUTOAC
 0007:1F76  Res  BGE_MAINTI
 0007:1FB6  Res  BGE_EXECAL
 0007:1FF6  Res  BGE_IDLEFU
 0007:224A  Res  BGE_ONACT
 0007:22EC  Res  BGE_NEW
 0007:255E  Res  BGE_FINDBY
 0007:25AE  Res  BGE_KILL
 0007:2814  Res  BGE_RELEVE
 0007:283C  Res  BGE_EXEC
 0007:297C  Res  BGE_BEXEC
 0007:2AD2  Res  BGE_RELEAS
 0007:2B34  Res  BGE_ACT
 0007:2B96  Res  BGE_DEACT
 0007:2BF8  Res  BGE_EVENT
 0007:2C44  Res  BGE_CLEAR
 0007:2CBE  Res  DSECONDS
 0007:2D02  Res  INKEY_ONID
 0007:2D4E  Res  INKEYEVENT
 0007:2DA8  Res  RDDSYS
 0007:2DC8  Res  TB2HTML
 0007:3656  Res  EDITCOMPAN
 0007:3D4A  Res  JINITREP
 0007:41A2  Res  JENDREPORT
 0007:43EA  Res  JVIEWREPOR
 0007:4A8E  Res  JADDDATA
 0007:4C0A  Res  JREFDATA
 0007:4F64  Res  JGOREPORT
 0007:5038  Res  JNEXTLINE
 0007:5188  Res  JREPWORKIN
 0007:5740  Res  JDGREFPBAR
 0007:578E  Res  JDGSETPBAR
 0007:57DA  Res  JDGINCRPBA
 0007:5BF4  Res  DGLINE
 0007:5CB2  Res  JNEWPBAR
 0007:5D26  Res  FEOF
 0007:5D6A  Res  JFINSTAT
 0007:64F6  Res  _JFINSTAT
 0007:70D8  Res  PRINTCAPIT
 0007:7EF4  Res  CUSTSTOCKR
 0007:8816  Res  DATEFIND
 0007:8880  Res  WHICHDIV
 0007:89C8  Res  TELLIT
 0007:8A26  Res  SERVICE
 0007:A170  Res  EXACTCUST
 0007:A542  Res  SRV_REPORT
 0007:AC94  Res  ASSETFLOW
 0007:B3F6  Res  WHATCOLOR
 0007:B518  Res  M_STANDBY
 0007:B5EE  Res  M_REPLACE
 0007:B6CC  Res  SETSP
 0007:B700  Res  SP_VISOR
 0007:B73A  Res  POP_MENU
 0007:B838  Res  CMX084954733
 0007:B868  Res  CMX097537645
 0007:B8A0  Res  CMX613537483
 0007:B8BE  Res  CMX538329402
 0007:B8F8  Res  CMX977217995
 0007:B910  Res  CMX005734354
 0007:B928  Res  CMX726817242
 0007:B941  Res  CMX473444648
 0007:B956  Res  CMX654610575
 0007:B970  Res  CMX173580993
 0007:B9C2  Res  CMX235232969
 0007:BA0E  Res  CMX235478729
 0007:BA87  Res  CMX866829476
 0007:BAFE  Res  CMX508566867
 0007:BBA9  Res  CMX446461837
 0007:BBAE  Res  CMX043483431
 0007:BBF2  Res  CMX883525303
 0007:BC00  Res  CMX929059936
 0007:BC42  Res  CMX246715390
 0007:BC4E  Res  CMX186766433
 0007:BC81  Res  CMX253348350
 0007:BC8E  Res  CMX186797153
 0007:BCC2  Res  CMX474066249
 0007:BCCF  Res  CMX336081346
 0007:BCD4  Res  CMX468211941
 0007:BCF2  Res  CMX214195627
 0007:BCFF  Res  CMX380876572
 0007:BD33  Res  CMX169891183
 0007:BDC5  Res  CMX879011562
 0007:BDFC  Res  CMX494402408
 0007:BE72  Res  CMX245444332
 0007:BF0E  Res  CMX403803327
 0007:BF23  Res  CMX199419023
 0007:BF3E  Res  CMX986415234
 0007:BF4F  Res  CMX982060232
 0007:BF5C  Res  CMX502489331
 0007:BF6B  Res  CMX810396889
 0007:BF78  Res  CMX810888409
 0007:BF85  Res  CMX682458074
 0007:C0F4  Res  CMX050357152
 0007:C108  Res  CMX830393666
 0007:C131  Res  CMX230056769
 0007:C15C  Res  CMX731045703
 0007:C180  Res  CMX156622498
 0007:C1D2  Res  CMX738799992
 0007:C1E8  Res  CMX634421000
 0007:C23D  Res  CMX666300271
 0007:C2D5  Res  CMX994711389
 0007:C36A  Res  CMX382876675
 0007:C3E3  Res  CMX344231016
 0007:C43F  Res  CMX508361432
 0007:C57F  Res  CMX268062777
 0007:C58E  Res  CMX635298904
 0007:C5B1  Res  CMX871543415
 0007:C5BB  Res  CMX643013188
 0007:C5CC  Res  CMX387515214
 0007:C626  Res  CMX604955922
 0007:C693  Res  CMX865446621
 0007:C6FC  Res  CMX827892744
 0007:C76A  Res  CMX074999728
 0007:C841  Res  CMX441910645
 0007:CB3C  Res  CMX185282501
 0007:CB77  Res  CMX164289296
 0007:CBF4  Res  CMX560786083
 0007:CC2E  Res  CMX959922587
 0007:CC51  Res  CMX993759099
 0007:CC76  Res  CMX172479978
 0007:CCA9  Res  CMX700801823
 0007:CD83  Res  CMX982503160
 0007:CE3E  Res  CMX598807552
 0007:CE84  Res  CMX387087116
 0007:CEC8  Res  CMX196132786
 0007:CF17  Res  CMX547891654
 0007:CFC6  Res  CMX752065290
 0007:D012  Res  CMX213654255
 0007:D06D  Res  CMX851523967
 0007:D0FD  Res  CMX632381491
 0007:D1A4  Res  CMX270099164
 0007:D26E  Res  CMX745123491
 0007:D2A7  Res  CMX297561813
 0007:D320  Res  CMX475652432
 0007:D40F  Res  CMX785205846
 0007:D47B  Res  CMX626713183
 0007:D4BC  Res  CMX629286077
 0007:D4F9  Res  CMX760850785
 0007:D598  Res  CMX782780997
 0007:D712  Res  CMX899243264
 0007:D74C  Res  CMX292433901
 0007:D75A  Res  CMX798499364
 0007:D800  Res  CMX964017668
 0007:D8B0  Res  CMX955270499
 0007:D8E4  Res  CMX864501934
 0007:D923  Res  CMX270876367
 0007:D9B6  Res  CMX606747024
 0007:DAC4  Res  CMX869119102
 0007:DB16  Res  CMX717153105
 0007:DB9F  Res  CMX221000530
 0007:DC46  Res  CMX684849366
 0007:DCF1  Res  CMX236123083
 0007:DDE3  Res  CMX517591605
 0007:DE15  Res  CMX325376800
 0007:DE52  Res  CMX620473041
 0007:DF24  Res  CMX969400059
 0007:DF5D  Res  CMX382438132
 0007:DFA4  Res  CMX612277721
 0007:E39C  Res  CMX001825711
 0007:E3F3  Res  CMX988123637
 0007:E6C9  Res  CMX042650646
 0007:E6E0  Res  CMX698919909
 0007:E73E  Res  CMX609750871
 0007:E808  Res  CMX258465356
 0007:E868  Res  CMX373631468
 0007:E88B  Res  CMX731156640
 0007:E8C3  Res  CMX274839965
 0007:E934  Res  CMX761948981
 0007:E966  Res  CMX420791016
 0007:E9AD  Res  CMX315505198
 0007:E9EC  Res  CMX225130864
 0007:EA22  Res  CMX205413778
 0007:EA25  Res  CMX420791022
 0007:EA4D  Res  CMX155463511
 0007:EA6F  Res  CMX319094796
 0007:EA92  Res  CMX110473590
 0007:EAC3  Res  CMX949897397
 0007:EAE5  Res  CMX681885696
 0007:EAEF  Res  CMX697000690
 0007:EB0A  Res  CMX870873737
 0007:EBA3  Res  CMX149716859
 0007:EC96  Res  CMX741222018
 0007:ECF0  Res  CMX150969293
 0007:ED0A  Res  CMX963337005
 0007:ED20  Res  CMX248438419
 0007:EDA8  Res  CMX418291516
 0007:EDAD  Res  CMX161935540
 0007:EDE0  Res  CMX281534051
 0007:EDE5  Res  CMX937507403
 0007:EDEA  Res  CMX934977980
 0007:EEAC  Res  CMX023349126
 0007:EEC6  Res  CMX325794621
 0007:EED0  Res  CMX956453972
 0007:EEFD  Res  CMX760914748
 0007:EFF4  Res  CMX005351517
 0007:F05B  Res  CMX573753264
 0007:F112  Res  CMX479955313
 0007:F160  Res  CMX018634812
 0007:F1D7  Res  CMX513877664
 0007:F202  Res  CMX938143865
 0007:F225  Res  CMX883521225
 0007:F265  Res  CMX971855319
 0007:F275  Res  CMX596140983
 0007:F297  Res  CMX056808011
 0007:F2F6  Res  CMX356373066
 0007:F329  Res  CMX370626189
 0007:F376  Res  CMX618615676
 0007:F392  Res  CMX179204774
 0007:F3FA  Res  CMX743605773
 0007:F436  Res  CMX840219090
 0007:F48B  Res  CMX047502927
 0007:F5BE  Res  CMX293206324
 0007:F5F9  Res  CMX096358324
 0007:F7BE  Res  CMX199955490
 0007:F886  Res  CMX069724090
 0007:F944  Res  CMX446002338
 0007:F999  Res  CMX806535267
 0007:F9BD  Res  CMX273259833
 0007:FA9A  Res  CMX327343588
 0007:FAC9  Res  CMX943136041
 0007:FB0E  Res  RLCOUNT
 0007:FB30  Res  RLGETFILTE
 0007:FB60  Res  RLHASMAYBE
 0007:FB8C  Res  CMX505868121
 0007:FC99  Res  CMX125109727
 0007:FCBF  Res  CMX080568274
 0007:FD76  Res  CMX416617128
 0007:FDD2  Res  RLMAYBEEVA
 0007:FE22  Res  RLOPTLEVEL
 0007:FE36  Res  RLNEWQUERY
 0007:FF0E  Res  RLSETFILTE
 0008:0000  Res  CM2STR
 0008:0162  Res  CMFILTER
 0008:01DE  Res  CMFILTCOUN
 0008:0224  Res  CMCLRFILTE
 0008:0250  Res  CMSETLINEA
 0008:028C  Res  CMGETLINEA
 0008:02AE  Res  CMDOLINEAR
 0008:034C  Res  COMIX
 0008:0366  Res  CMX633586303
 0008:03D9  Res  CMX576944818
 0008:042C  Res  CMX633482511
 0008:044A  Res  CMX748486646
 0008:0460  Res  CMX028982538
 0008:0472  Res  CMX618050881
 0008:0482  Res  CMX902613052
 0008:04A1  Res  CMX972600610
 0008:0561  Res  CMX737630814
 0008:05E9  Res  CMX475395674
 0008:0687  Res  CMX816444353
 0008:06B5  Res  CMX200249840
 0008:0706  Res  CMX781918605
 0008:07C3  Res  CMX224514090
 0008:07FA  Res  CMX380785283
 0008:080B  Res  CMX665414550
 0008:0863  Res  CMX544596293
 0008:0973  Res  CMX735519405
 0008:09F3  Res  CMX233104969
 0008:0A22  Res  CMX028433739
 0008:0AA5  Res  CMX699905313
 0008:0AB5  Res  CMX418489353
 0008:0AD2  Res  CMX248825490
 0008:0AE2  Res  CMX165147377
 0008:0AF4  Res  CMX835610741
 0008:0B37  Res  CMX546389291
 0008:0B47  Res  CMX618241169
 0008:0B57  Res  CMX376752827
 0008:0B6F  Res  CMX618050769
 0008:0B85  Res  CMX526820974
 0008:0C3D  Res  CMX923805105
 0008:0C4E  Res  CMX978725736
 0008:0C65  Res  CMX248808300
 0008:0C7C  Res  CMX204216615
 0008:0CF0  Res  CMX434328393
 0008:0D3D  Res  CMX293836257
 0008:0D68  Res  CMX153584791
 0008:0E13  Res  CMX551132328
 0008:0EA5  Res  CMX282882489
 0008:0F54  Res  CMX283979039
 0008:0F74  Res  CMX962311336
 0008:1037  Res  CMX862733172
 0008:1075  Res  CMX425825469
 0008:10ED  Res  CMX752445434
 0008:1281  Res  CMX289834814
 0008:13B8  Res  CMX916328532
 0008:140B  Res  CMX885565380
 0008:144E  Res  CMX354897549
 0008:149D  Res  CMX025779227
 0008:156E  Res  CMX289387563
 0008:15A5  Res  CMX562268160
 0008:15C0  Res  CMX432231175
 0008:175D  Res  CMX669877135
 0008:18C8  Res  CMX015957126
 0008:18EA  Res  CMX045156785
 0008:1911  Res  CMX791681910
 0008:193E  Res  CMX491253600
 0008:196A  Res  CMX516242831
 0008:1B1E  Res  CMX209146242
 0008:1B32  Res  CMX567541834
 0008:1B32  Res  CMX655401389
 0008:1B6B  Res  CMX239508143
 0008:1B6B  Res  CMX850872154
 0008:1C56  Res  CMX606116975
 0008:1CEF  Res  CMX297813243
 0008:1D99  Res  CMX870396630
 0008:1DDB  Res  CMX871595932
 0008:1EA6  Res  CMX266326697
 0008:1F02  Res  CMX019008357
 0008:1F24  Res  CMX722365924
 0008:1F24  Res  CMX875275494
 0008:1FF8  Res  CMX271543705
 0008:201D  Res  CMX743081882
 0008:20A5  Res  CMX735659488
 0008:20E5  Res  CMX899328116
 0008:20FC  Res  CMX184313675
 0008:2120  Res  CMX019603252
 0008:2130  Res  CMX068174727
 0008:214C  Res  CMX159129878
 0008:2186  Res  CMX763367557
 0008:21BD  Res  CMX204462864
 0008:21CD  Res  CMX161073065
 0008:2218  Res  CMX826025558
 0008:2247  Res  CMX166479643
 0008:22AC  Res  CMX170728748
 0008:22FE  Res  CMX747797934
 0008:23BB  Res  CMX916956057
 0008:23E5  Res  CMX654777938
 0008:23FD  Res  CMX289210832
 0008:240E  Res  CMX668077230
 0008:2492  Res  CMX514105383
 0008:255B  Res  CMX001696203
 0008:25D1  Res  CMX693003319
 0008:25D6  Res  CMX581820087
 0008:25ED  Res  CMX928530023
 0008:261A  Res  CMX394476673
 0008:2622  Res  CMX572466291
 0008:2622  Res  CMX779564921
 0008:2635  Res  CMX893055767
 0008:2635  Res  CMX430992513
 0008:2699  Res  CMX668037672
 0008:2699  Res  CMX219883957
 0008:26DC  Res  CMX223025186
 0008:2704  Res  CMX597035165
 0008:2724  Res  CMX651274284
 0008:27B2  Res  CMX848505478
 0008:27E0  Res  CMX137528200
 0008:28FC  Res  CMX053756165
 0008:293B  Res  CMX300072502
 0008:29B5  Res  CMX751202438
 0008:2A0C  Res  CMX018202611
 0008:2A5F  Res  CMX711355288
 0008:2A7A  Res  CMX985319543
 0008:2AD6  Res  CMX395338953
 0008:2B92  Res  CMX078385136
 0008:2BCA  Res  CMX897042912
 0008:2C19  Res  CMX909401436
 0008:2C7C  Res  CMX380831790
 0008:2CF0  Res  CMX843059619
 0008:2D79  Res  CMX942122666
 0008:2E14  Res  CMX339951448
 0008:2F02  Res  CMX961450908
 0008:2F46  Res  CMX477277595
 0008:2F6F  Res  CMX503840312
 0008:2F9C  Res  CMX220882945
 0008:2F9C  Res  CMX496752188
 0008:2FCF  Res  CMX747309730
 0008:2FCF  Res  CMX644081094
 0008:2FE2  Res  CMX660745551
 0008:2FE2  Res  CMX200159042
 0008:300F  Res  CMX741207557
 0008:300F  Res  CMX389136121
 0008:3091  Res  CMX160851364
 0008:3091  Res  CMX071032550
 0008:309F  Res  CMX009484746
 0008:309F  Res  CMX073934431
 0008:30A7  Res  CMX411397866
 0008:30B4  Res  CMX242998687
 0008:31C3  Res  CMX252257488
 0008:323D  Res  CMX066569198
 0008:3288  Res  CMX573430144
 0008:32D5  Res  CMX163042336
 0008:3351  Res  CMX272247961
 0008:3425  Res  CMX343674830
 0008:3452  Res  CMX042950950
 0008:34C2  Res  CMX211803595
 0008:34C2  Res  CMX337737243
 0008:34CB  Res  CMX373099173
 0008:34CB  Res  CMX254086331
 0008:3540  Res  CMX943503650
 0008:3540  Res  CMX159205779
 0008:357C  Res  CMX822224979
 0008:357C  Res  CMX439247200
 0008:3606  Res  CMX251303682
 0008:3648  Res  CMX039535002
 0008:3685  Res  CMX135052903
 0008:373A  Res  CMX258849207
 0008:37A0  Res  CMX421738046
 0008:37F6  Res  CMX131109927
 0008:3850  Res  CMX104434925
 0008:387B  Res  CMX033247555
 0008:38BA  Res  CMX977137637
 0008:3912  Res  CMX451377504
 0008:394A  Res  CMX146977086
 0008:395F  Res  CMX408004001
 0008:397A  Res  CMX807108655
 0008:3CAC  Res  CMX445569493
 0008:3D1B  Res  CMX827459720
 0008:3DBC  Res  CMX932449022
 0008:3ED1  Res  CMX655472716
 0008:3F5C  Res  CMX629112521
 0008:4027  Res  CMX450038145
 0008:40BA  Res  CMX986830918
 0008:40FD  Res  CMX127459057
 0008:41C9  Res  CMX188103834
 0008:4234  Res  CMX657363950
 0008:425B  Res  CMX991180244
 0008:4464  Res  CMX045771855
 0008:4530  Res  CMX552038199
 0008:4558  Res  CMX742220401
 0008:4733  Res  CMX092043698
 0008:48B1  Res  CMX658536648
 0008:48DE  Res  CMX842724008
 0008:4984  Res  CMX759211308
 0008:4A80  Res  CMX699040568
 0008:4A80  Res  CMX605732980
 0008:4AA3  Res  CMX194426111
 0008:4AA3  Res  CMX838921242
 0008:4ACA  Res  CMX873551809
 0008:4ADB  Res  CMX128546665
 0008:4B0D  Res  CMX219102883
 0008:4B80  Res  CMX773687178
 0008:4CCE  Res  CMX411243010
 0008:4DAD  Res  CMX255575787
 0008:4F7F  Res  CMX921327105
 0008:502C  Res  CMX049653951
 0008:507C  Res  CMX267257445
 0008:50DE  Res  CMX406271939
 0008:51DC  Res  CMX714634523
 0008:538C  Res  CMX685420327
 0008:53BD  Res  CMX623816494
 0008:541A  Res  CMX593156521
 0008:541A  Res  CMX619034084
 0008:5438  Res  CMX206100204
 0008:5438  Res  CMX704545250
 0008:545F  Res  CMX165107281
 0008:545F  Res  CMX869745484
 0008:548F  Res  CMX977050109
 0008:54BC  Res  CMX697327803
 0008:5530  Res  CMX299031141
 0008:5541  Res  CMX541262722
 0008:5747  Res  CMX815954640
 0008:5757  Res  CMX567041651
 0008:57E8  Res  CMX065447396
 0008:57F8  Res  CMX031301497
 0008:58B7  Res  CMX904938926
 0008:5A78  Res  CMX772795318
 0008:5AFE  Res  CMX992083051
 0008:5C00  Res  CMX410150360
 0008:5C6B  Res  CMX134879387
 0008:5CF8  Res  CMX993364859
 0008:5D09  Res  CMX758405786
 0008:6008  Res  CMX308866259
 0008:6018  Res  CMX962943237
 0008:6144  Res  CMX060941707
 0008:6305  Res  CMX819601944
 0008:6427  Res  CMX527991151
 0008:66AA  Res  CMX971939551
 0008:6922  Res  CMX609629519
 0008:695F  Res  CMX699255409
 0008:69A3  Res  CMX862212578
 0008:69E2  Res  CMX673369495
 0008:69E2  Res  CMX045733508
 0008:69E2  Res  CMX673290711
 0008:69E4  Res  CMX554233204
 0008:6A2A  Res  CMX639921274
 0008:6A4D  Res  CMX007523195
 0008:6A8C  Res  CMX279247801
 0008:6AC6  Res  CMX851708517
 0008:6AF3  Res  CMX248127811
 0008:6B6C  Res  CMX601146399
 0008:6B89  Res  CMX607349493
 0008:6B96  Res  CMX963165347
 0008:6BA3  Res  CMX964776357
 0008:6BA7  Res  CMX168778882
 0008:6BAC  Res  CMX164070523
 0008:6BE0  Res  CMX935346206
 0008:6C00  Res  CMX742073218
 0008:6D7E  Res  CMX559306635
 0008:6DFB  Res  CMX902841531
 0008:6E20  Res  CMX520594040
 0008:6E56  Res  CMX135990802
 0008:6EA4  Res  CMX408767411
 0008:6EBB  Res  CMX589952407
 0008:6EC8  Res  CMX665334310
 0008:6EE7  Res  CMX217204993
 0008:6F07  Res  CMX435723960
 0008:6F3E  Res  CMX513485770
 0008:6F5C  Res  CMX144277654
 0008:6F67  Res  CMX234836443
 0008:6F8B  Res  CMX911877342
 0008:6FDB  Res  CMX126868859
 0008:701E  Res  CMX479187216
 0008:708E  Res  CMX951122923
 0008:70CB  Res  CMX608991839
 0008:711E  Res  CMX532841445
 0008:714A  Res  CMX445575368
 0008:71DC  Res  CMX243977710
 0008:7210  Res  CMX201987672
 0008:72A6  Res  CMX957476925
 0008:72D2  Res  CMX097381567
 0008:7340  Res  CMX299845257
 0008:7398  Res  CMX147184352
 0008:73BE  Res  CMX961013920
 0008:73E7  Res  CMX768234371
 0008:7416  Res  CMX685449298
 0008:743B  Res  CMX068403602
 0008:7454  Res  CMX566076514
 0008:7466  Res  CMX852403632
 0008:758A  Res  CMX109927085
 0008:7598  Res  CMX359802927
 0008:75D6  Res  CMX673138698
 0008:7626  Res  CMX829696955
 0008:762A  Res  CMX726303031
 0008:7653  Res  CMX475110798
 0008:765E  Res  CMX477702216
 0008:7713  Res  CMX272952715
 0008:7717  Res  CMX041035922
 0008:772A  Res  CMX462305501
 0008:7802  Res  CMX048384574
 0008:7824  Res  CMX369180009
 0008:7862  Res  CMXSETSCOP
 0008:792C  Res  CMXCLRSCOP
 0008:7984  Res  COMIXDBF
 0008:799E  Res  CMX632288387
 0008:79D4  Res  CMX841367087
 0008:79DC  Res  CMX256289004
 0008:79E4  Res  CMX900134347
 0008:8256  Res  CMX262483116
 0008:82A4  Res  CMX102815567
 0008:830C  Res  CMX694459360
 0008:834E  Res  CMX926368072
 0008:8396  Res  CMX102690703
 0008:84BE  Res  CMX102625279
 0008:8506  Res  CMX207436419
 0008:857E  Res  CMX259630690
 0008:85E6  Res  CMX021907952
 0008:86B6  Res  CMX119101250
 0008:8774  Res  CMX056193319
 0008:87AE  Res  CMX928737405
 0008:87F2  Res  CMX112283742
 0008:8824  Res  CMX511913156
 0008:8940  Res  CMX935779809
 0008:8B3E  Res  CMX168750490
 0008:8B7A  Res  CMX894768441
 0008:8F90  Res  CMX514242372
 0008:907C  Res  CMX061027248
 0008:937E  Res  CMX513965892
 0008:9492  Res  CMX308498510
 0008:9518  Res  CMX509474489
 0008:970C  Res  CMX917428392
 0008:9A20  Res  CMX473021661
 0008:9AAE  Res  CMX042893896
 0008:9B3C  Res  CMX273380881
 0008:9B90  Res  CMX801051139
 0008:9BCE  Res  CMX212198392
 0008:9BFE  Res  CMX512093508
 0008:9C2E  Res  CMX197873338
 0008:9E68  Res  CMX257422842
 0008:9EB6  Res  CMX397741203
 0008:9F42  Res  CMX138296113
 0008:A164  Res  CMX021925142
 0008:A268  Res  CMX884465865
 0008:A2E2  Res  CMX256288924
 0008:A328  Res  CMX129630385
 0008:A8DC  Res  CMX091475360
 0008:A92E  Res  CMX657684022
 0008:AA0C  Res  CMX129400969
 0008:AB20  Res  CMX107426448
 0008:ABE4  Res  CMX441198892
 0008:AC18  Res  CMX186209640
 0008:AC4E  Res  CMX637845083
 0008:AC5E  Res  CMX270359463
 0008:AE3A  Res  CMX677334492
 0008:AFB0  Res  CMX791027540
 0008:AFE8  Res  CMX265509651
 0008:B09A  Res  CMX849094661
 0008:B0D8  Res  CMX848818181
 0008:B0FC  Res  CMX779260964
 0008:B14C  Res  CMX889630964
 0008:B1C6  Res  CMX142981799
 0008:B1E0  Res  CMX585843189
 0008:B204  Res  CMX132711687
 0008:B224  Res  CMX575573077
 0008:B246  Res  CMX004746427
 0008:B272  Res  CMX554467212
 0008:B29C  Res  CMX532974973
 0008:B2B2  Res  CMX660351718
 0008:B2D2  Res  CMX615414805
 0008:B52A  Res  __CYCLEF
 0008:B7CC  Res  __XALLOC
 0008:B866  Res  __XFREE
 0008:B8F0  Res  __XGRAB
 0008:B920  Res  __ALLOCF
 0008:B962  Res  __FREEF
 0008:B974  Res  __PTOABSADDR
 0008:B995  Res  _STRCPY
 0008:B9C0  Res  _STCCPY
 0008:B9E9  Res  _STRNCPY
 0008:BA14  Res  __BSET
 0008:BA37  Res  __BMOVE
 0008:BA8A  Res  __BCOPY
 0008:BAA8  Res  __BCOPYF
 0008:BAD7  Res  __LCOPY
 0008:BAF5  Res  __BCMP
 0008:BB37  Res  __BSCAN
 0008:BB5B  Res  __U2HEX
 0008:BB8A  Res  _STRCAT
 0008:BBB4  Res  _STPCHR
 0008:BBE1  Res  _STPBLK
 0008:BC08  Res  _STRLEN
 0008:BC2A  Res  __DOSFUNC
 0008:BC5C  Res  __ASMCALL
 0008:BC9A  Res  __ASTART
 0008:BDDE  Res  __CINTDIV
 0008:BDED  Res  __AMSG_EXIT
 0008:BE01  Res  DGROUP@
 0008:BE04  Res  __CINIT
 0008:BEC8  Res  _EXIT
 0008:BEDF  Res  __EXIT
 0008:BF26  Res  __CTERMSUB
 0008:BF66  Res  __FPTRAP
 0008:BF6C  Res  __FF_MSGBANNER
 0008:BF90  Res  __NULLCHECK
 0008:BFB6  Res  __NMSG_TEXT
 0008:BFE1  Res  __NMSG_WRITE
 0008:C00C  Res  __SETENVP
 0008:C088  Res  __SETARGV
 0008:C230  Res  __AFLDIV
 0008:C2CC  Res  __AFULMUL
 0008:C2CC  Res  __AFLMUL
 0008:C300  Res  __AFLSHR
 0008:C30C  Res  __AFLREM
 0008:C3AE  Res  __AFULREM
 0008:C41A  Res  __AFULDIV
 0008:C47C  Res  __AFNALMUL
 0008:C47C  Res  __AFNAULMUL
 0008:C4A0  Res  __AFNALDIV
 0008:C4D8  Res  __SLDS
 0008:C4DC  Res  __ELDS
 0008:C4FA  Res  __FLDS
 0008:C524  Res  __SLDD
 0008:C528  Res  __ELDD
 0008:C548  Res  __FLDD
 0008:C577  Res  __SLDT
 0008:C57D  Res  __FLDT
 0008:C5B1  Res  __SLDL
 0008:C5B5  Res  __ELDL
 0008:C5BE  Res  __SLDW
 0008:C5C2  Res  __ELDW
 0008:C5C8  Res  __FLDL
 0008:C5CF  Res  __FLDW
 0008:C5D1  Res  B$FIL2
 0008:C5D2  Res  B$FILD
 0008:C626  Res  __FDUP
 0008:C655  Res  __FLDZ
 0008:C67B  Res  __SSTS
 0008:C67F  Res  __FSTS
 0008:C683  Res  __ESTS
 0008:C693  Res  __SSTSP
 0008:C697  Res  __FSTSP
 0008:C69B  Res  __ESTSP
 0008:C6C9  Res  __SSTD
 0008:C6CD  Res  __FSTD
 0008:C6D1  Res  __ESTD
 0008:C6E1  Res  __SSTDP
 0008:C6E5  Res  __FSTDP
 0008:C6E9  Res  __ESTDP
 0008:C712  Res  __SSTT
 0008:C716  Res  __FSTT
 0008:C729  Res  __SSTTP
 0008:C72D  Res  __FSTTP
 0008:C750  Res  B$FIS2
 0008:C758  Res  B$FIST
 0008:C760  Res  B$FUST
 0008:C798  Res  __FTOL
 0008:C7D1  Res  __FTST
 0008:C7FE  Res  __FABS
 0008:C80D  Res  __FCHS
 0008:C845  Res  __SSUBS
 0008:C84D  Res  __ESUBS
 0008:C854  Res  __FSUBS
 0008:C85D  Res  __SSUBSR
 0008:C865  Res  __ESUBSR
 0008:C86C  Res  __FSUBSR
 0008:C875  Res  __SMULS
 0008:C87D  Res  __EMULS
 0008:C884  Res  __FMULS
 0008:C88D  Res  __SDIVS
 0008:C895  Res  __EDIVS
 0008:C89C  Res  __FDIVS
 0008:C8A5  Res  __SDIVSR
 0008:C8AD  Res  __EDIVSR
 0008:C8B4  Res  __FDIVSR
 0008:C8BD  Res  __SADDS
 0008:C8C5  Res  __EADDS
 0008:C8CC  Res  __FADDS
 0008:C904  Res  __SSUBD
 0008:C90C  Res  __ESUBD
 0008:C913  Res  __FSUBD
 0008:C91C  Res  __SSUBDR
 0008:C924  Res  __ESUBDR
 0008:C92B  Res  __FSUBDR
 0008:C934  Res  __SMULD
 0008:C93C  Res  __EMULD
 0008:C943  Res  __FMULD
 0008:C94C  Res  __SDIVD
 0008:C954  Res  __EDIVD
 0008:C95B  Res  __FDIVD
 0008:C964  Res  __SDIVDR
 0008:C96C  Res  __EDIVDR
 0008:C973  Res  __FDIVDR
 0008:C97C  Res  __SADDD
 0008:C984  Res  __EADDD
 0008:C98B  Res  __FADDD
 0008:C9AA  Res  __FSUB
 0008:C9AF  Res  __FSUBR
 0008:C9B4  Res  __FMUL
 0008:C9B9  Res  __FDIV
 0008:C9BE  Res  __FDIVR
 0008:C9C3  Res  __FADD
 0008:C9C8  Res  __FCOMPP
 0008:C9C8  Res  B$FCMP
 0008:C9CD  Res  __FCMP
 0008:CA5B  Res  __FXCHQ
 0008:CA69  Res  __FXCH
 0008:CA8F  Res  __DCVT
 0008:CAA7  Res  $I4_ERRINF
 0008:CAA7  Res  $I8_ERRMINF
 0008:CAA7  Res  $I8_ERRINF
 0008:CAA7  Res  $I4_ERRMINF
 0008:CAA7  Res  $I8_ERRPINF
 0008:CAA7  Res  $I4_ERRPINF
 0008:CAB1  Res  $I4_ERRDIV0
 0008:CAB1  Res  $I8_ERRDIV0
 0008:CABB  Res  $I8_ERRINVLD
 0008:CABB  Res  $I4_ERRINVLD
 0008:CAC5  Res  $I8_ERRSTACK
 0008:CAD8  Res  __FPSIGNAL
 0008:CB15  Res  __FPMATH
 0008:CB43  Res  __SMOVTMPESBX
 0008:CB45  Res  __SMOVTMPESSI
 0008:CB59  Res  __DMOVTMPESBX
 0008:CB5B  Res  __DMOVTMPESSI
 0008:CB71  Res  __DCVTST0
 0008:CB7D  Res  __DCVTST0A
 0008:CB80  Res  __DCVTDISI
 0008:CBBF  Res  __CTRANDISP2
 0008:CBD7  Res  __CTRANDISP1
 0008:CCC3  Res  $I4_CMP
 0008:CD16  Res  $I8_CMP
 0008:CD68  Res  $I8_4
 0008:CDA9  Res  $I4_8
 0008:CE2B  Res  $I4_W
 0008:CE2D  Res  $I4_Q
 0008:CE35  Res  $I4_S
 0008:CE41  Res  $I4_L
 0008:CE5B  Res  $I8_W
 0008:CE5D  Res  $I8_Q
 0008:CE65  Res  $I8_S
 0008:CE71  Res  $I8_L
 0008:CE90  Res  $I4_TO_S
 0008:CE95  Res  $I4_TO_SRND
 0008:CE95  Res  $I4_TO_SIRND
 0008:CE9A  Res  $I8_TO_S
 0008:CE9F  Res  $I8_TO_SRND
 0008:CE9F  Res  $I8_TO_SIRND
 0008:CEAC  Res  $I4_TO_W
 0008:CEB1  Res  $I4_TO_WRND
 0008:CEB1  Res  $I4_TO_WIRND
 0008:CEB6  Res  $I8_TO_W
 0008:CEBB  Res  $I8_TO_WRND
 0008:CEBB  Res  $I8_TO_WIRND
 0008:CEC3  Res  $I4_TO_LRND
 0008:CEC3  Res  $I4_TO_LIRND
 0008:CEC8  Res  $I8_TO_LRND
 0008:CEC8  Res  $I8_TO_LIRND
 0008:CECD  Res  $I4_TO_L
 0008:CED2  Res  $I8_TO_L
 0008:CEF2  Res  $I4_TO_QIRND
 0008:CEF2  Res  $I4_TO_QRND
 0008:CEF7  Res  $I8_TO_QIRND
 0008:CEF7  Res  $I8_TO_QRND
 0008:CF16  Res  $I8_TO_Q
 0008:CF4B  Res  $I4_TO_Q
 0008:CFC7  Res  $I8_FIXIRND
 0008:CFC7  Res  $I8_FIXRND
 0008:CFED  Res  $I4_FIXRND
 0008:CFED  Res  $I4_FIXIRND
 0008:D011  Res  $I8_FIX
 0008:D021  Res  $I4_FIX
 0008:D13B  Res  $I4_SUBREV
 0008:D13D  Res  $I4_SUB
 0008:D145  Res  $I4_ADD
 0008:D217  Res  $I4_NORM
 0008:D245  Res  $I4_ROUND
 0008:D2A7  Res  $I4_MUL
 0008:D32B  Res  $I4_DIVREV
 0008:D32D  Res  $I4_DIV
 0008:D435  Res  $I8_SUBREV
 0008:D437  Res  $I8_SUB
 0008:D45A  Res  $I8_ADD
 0008:D58D  Res  $I8_NORM
 0008:D5E3  Res  $I8_ROUND
 0008:D661  Res  $I8_MUL
 0008:D6C2  Res  $I8_DIVREV
 0008:D6C4  Res  $I8_DIV
 0008:D9F6  Res  $I8_LGT
 0008:DA0C  Res  $I8_LOG
 0008:DAC3  Res  $I8_EXP
 0008:DAD7  Res  $I8_EXPADJUST
 0008:DB12  Res  $I8_PF_PWR
 0008:DB29  Res  $I8_C_PWR
 0008:DB2D  Res  $I8_PWR
 0008:DC27  Res  $I8_PWR_L
 0008:DC27  Res  $I8_PF_PWR_L
 0008:DCBD  Res  $I8_SQR
 0008:DD7B  Res  $I8_ADDF
 0008:DD7F  Res  $I8_ADDFSI
 0008:DD85  Res  $I8_SUBF
 0008:DD89  Res  $I8_SUBFSI
 0008:DD8F  Res  $I8_MULF
 0008:DD93  Res  $I8_MULFSI
 0008:DD99  Res  $I8_DIVF
 0008:DD9D  Res  $I8_DIVFSI
 0008:DDA3  Res  $I8_SUBR
 0008:DDA7  Res  $I8_SUBRDI
 0008:DDAD  Res  $I8_DIVR
 0008:DDB1  Res  $I8_DIVRDI
 0008:DDB7  Res  $I8_CLEARAC
 0008:DDC7  Res  $I8_MOVAC
 0008:DDD0  Res  $I8_MOVAC_ARG
 0008:DDE0  Res  $I8_MOVARG_AC
 0008:DDE4  Res  $I8_MOVARG
 0008:DDEF  Res  $I8_MOVTEMP
 0008:DDFA  Res  $I8_PSHARG
 0008:DDFF  Res  $I8_PSHAC
 0008:DE03  Res  $I8_PSHSI
 0008:DE11  Res  $I8_POPARG
 0008:DE16  Res  $I8_POPAC
 0008:DE1A  Res  $I8_POPSI
 0008:DE28  Res  $I8_POLY
 0008:DE6D  Res  $I8_EVEN
 0008:DEA3  Res  $I8_EXPM1
 0008:DEB4  Res  $I8_EXPM1REDUCED
 0008:DEE4  Res  $I8_LNREDUCEAC_HI
 0008:DEEA  Res  $I8_LNREDUCE
 0008:DEF9  Res  $I8_RETONE
 0008:DF03  Res  $I8_RETZERO
 0008:DF1A  Res  $I8_OVERFLOWRANGE
 0008:DF1F  Res  $I8_EXPHRANGE
 0008:DF27  Res  $I8_EXPRANGE
 0008:DF2D  Res  $I8_RANGE
 0008:DF51  Res  $I8_P_Q
 0008:DF87  Res  $I8_Z2P_Q
 0008:DF98  Res  $I8_Z3P_Q
 0008:DFA1  Res  $I8_REDUCE
 0008:DFBD  Res  $I8_TMUL
 0008:E123  Res  $I8_TPWR10
 0008:E193  Res  $I8_INPUT
 0008:E4DF  Res  $I8_OUTPUT
 0008:E5DF  Res  _FLOOR
 0008:E5EF  Res  _CEIL
 0008:E655  Res  _FMOD
 0008:E6B0  Res  _POW
 0008:E6B9  Res  _LOG
 0008:E6C2  Res  _LOG10
 0008:E6CB  Res  _EXP
 0008:E6D4  Res  _SQRT
 0008:E6DE  Res  __MYALLOC
 0008:E720  Res  __WRT2ERR
 0008:E72F  Res  _MATHERR
 0008:E73D  Res  __DVINIT
 0008:E766  Res  __DVADD
 0008:E7AD  Res  __DVSUB
 0008:E7F4  Res  __DVMUL
 0008:E83B  Res  __DVDIV
 0008:E882  Res  __DVTOQ
 0008:E89D  Res  __DVTOI
 0008:E8B8  Res  __DVTOL
 0008:E8D3  Res  __DVFMQ
 0008:E91B  Res  __DVFMI
 0008:E955  Res  __DVFML
 0008:E990  Res  __DVFMA
 0008:EA0A  Res  __NTOA
 0008:EB0C  Res  __ATON
 0008:EB62  Res  __LNTOA
 0008:EC01  Res  __CFLTCVT
 0008:EC02  Res  __CROPZEROS
 0008:EC03  Res  __FASSIGN
 0008:EC04  Res  __FORCDECPT
 0008:EC05  Res  __POSITIVE
 0008:EC06  Res  __CFTOE
 0008:EC07  Res  __CFTOF
 0008:EC08  Res  __CFTOG
 0008:EC20  Res  __DYNXHOOK
 0008:EC32  Res  __TERMHOOK
 0008:EC44  Res  __GTHOOK
 0008:EC56  Res  __DBCMDHOOK
 0008:EC68  Res  __DISKIOHOOK
 0008:EFEC  Res  __EVEENTRY
 0008:EFEC  Res  __EVLOW
 0008:F2F0  Res  __STORCLEN
 0008:F3E6  Res  __STORC
 0008:F424  Res  __PARINFO
 0008:F47A  Res  __PARINFA
 0008:F598  Res  __PARCPEEK
 0008:F5E4  Res  __PARC
 0008:F680  Res  __PARCSIZ
 0008:F6C4  Res  __PARCLEN
 0008:F6EE  Res  __PARNI
 0008:F736  Res  __PARNL
 0008:F782  Res  __PARND
 0008:F7E6  Res  __PARL
 0008:F7FC  Res  __PARDS
 0008:F828  Res  __STORND
 0008:F862  Res  __STORNL
 0008:F882  Res  __STORNI
 0008:F8A2  Res  __STORL
 0008:F8BE  Res  __STORDS
 0008:F8F8  Res  __RETCLEN
 0008:F92A  Res  __RETNI
 0008:F94C  Res  __RETNL
 0008:F970  Res  __RETND
 0008:F998  Res  __RETDS
 0008:F9CC  Res  __RET
 0008:F9CE  Res  __RETA
 0008:F9DC  Res  __EXMGRAB
 0008:F9EC  Res  __EXMBACK
 0009:03EE  Res  _ARRAYNEW
 0009:0524  Res  _BLOCKNEW
 0009:05E6  Res  _BYTESNEW
 0009:07F0  Res  __OCOPY
 0009:1B7C  Res  __XCHECK
 0009:1B8A  Res  __OSCAVENGEALL
 0009:1BDE  Res  __OESTIMATE
 0009:1C0D  Res  __IARRAYAT
 0009:1C8E  Res  __CAT
 0009:1DAA  Res  __CATPUT
 0009:1F88  Res  __IARRAYPUT
 0009:1FB4  Res  __IARRAYC2
 0009:20A6  Res  _VARRAY
 0009:20E8  Res  _VARRAYX
 0009:213C  Res  _VARRAYLEN
 0009:217E  Res  __VDICT
 0009:21CE  Res  __VSETDICT
 0009:223A  Res  _VSTR
 0009:2290  Res  _VSTRX
 0009:22E4  Res  _VSTR2
 0009:23B6  Res  _VSTRLOCK
 0009:2420  Res  _VSTRUNLOCK
 0009:2474  Res  _VSTRCOLD
 0009:24CC  Res  _BYTESNEW2
 0009:24EC  Res  _OSTRDUP
 0009:25A4  Res  __CATAT
 0009:2618  Res  __CATPUTSTR
 0009:27A6  Res  __IMAKEA
 0009:280C  Res  __IMAKELA
 0009:28C6  Res  ARRAY
 0009:2964  Res  _CSCANCHECK
 0009:2A00  Res  __CCOPY
 0009:2A7E  Res  __CBECOME
 0009:2C9E  Res  __CRESIZE
 0009:2F4C  Res  ASIZE
 0009:2FB0  Res  __AADD
 0009:301A  Res  __XUNLOCK
 0009:306C  Res  __XXLOCK
 0009:3290  Res  __OM_INIT
 0009:3B8C  Res  __SORTEND
 0009:3EDE  Res  _MERGE
 0009:4118  Res  __SORTCOMPLETE
 0009:4890  Res  __SORTSORT
 0009:49C2  Res  __SORTADVANCE
 0009:4AF9  Res  __SORTSETFIELD
 0009:4B39  Res  __SORTINIT
 0009:4C77  Res  __SYSCALL
 0009:6453  Res  __V16
 0009:6519  Res  __V32
 0009:6576  Res  __VMADD
 0009:65C8  Res  __VMALLOC
 0009:65FE  Res  __VMALLOCD
 0009:663A  Res  __VMALLOCF
 0009:666F  Res  __VMALLOCO
 0009:66AE  Res  __VMDIRTYPTR
 0009:6712  Res  __VMDISCARD
 0009:67D4  Res  __VMFIX
 0009:68DE  Res  __VMFREE
 0009:68FF  Res  __VMLOCK
 0009:6968  Res  __VMLOCKSEG
 0009:69DA  Res  __VMPREALLOC
 0009:6A1A  Res  __VMPTR
 0009:6A7E  Res  __VMREALLOC
 0009:6C21  Res  __VMSIZE
 0009:6C30  Res  __VMSTAT
 0009:6D9B  Res  __VMSTATE
 0009:6DC9  Res  __VMSTATN
 0009:6E14  Res  __VMTWO
 0009:6F2A  Res  __VMUNLOCK
 0009:6F37  Res  __VMXCHG
 0009:6FCA  Res  __VMXFR
 0009:71FF  Res  __MEM_RESUME
 0009:7221  Res  __MEM_SUSPEND
 0009:72F3  Res  __MEM_EXIT
 0009:7415  Res  __EFAULT
 0009:7595  Res  __MEM_INIT2
 0009:75C9  Res  __MEM_INIT
 0009:7A44  Res  __XVALLOC
 0009:7A9C  Res  __XVFREE
 0009:7AC8  Res  __XVREALLOC
 0009:7B30  Res  __XVLOCK
 0009:7B78  Res  __XVWIRE
 0009:7BBA  Res  __XVUNLOCK
 0009:7C08  Res  __XVUNWIRE
 0009:7C18  Res  __XVLOCKCOUNT
 0009:7C56  Res  __XVSIZE
 0009:7C94  Res  __XVHEAPNEW
 0009:7CFC  Res  __XVHEAPDESTROY
 0009:7D0C  Res  __XVHEAPRESIZE
 0009:7DF5  Res  __XVHEAPALLOC
 0009:7E49  Res  __XVHEAPFREE
 0009:7E95  Res  __XVHEAPLOCK
 0009:7F03  Res  __XVHEAPUNLOCK
 0009:9412  Res  MEMORY
 0009:9554  Res  __TBNAME
 0009:9618  Res  PROCNAME
 0009:9642  Res  PROCLINE
 0009:9672  Res  PROCFILE
 0009:9680  Res  __WEED_EATR
 0009:96D1  Res  __START_PROC
 0009:A0BC  Res  __XTBRSETUP
 0009:B1A0  Res  __TOTBROWS
 0009:B3B0  Res  __CCLASSNA
 0009:B3BE  Res  __TOTBCOLU
 0009:B51E  Res  _SETLASTTRAN
 0009:B530  Res  __DBGTERMX
 0009:B74A  Res  __INKEY0
 0009:B76C  Res  _NOW
 0009:B7BE  Res  __INKEY1
 0009:B8C0  Res  NEXTKEY
 0009:B930  Res  LASTKEY
 0009:B9DA  Res  __KEYBOARD
 0009:BB28  Res  SETKEY
 0009:BBFE  Res  __MODAL_KEY
 0009:BD24  Res  __PCOL
 0009:BD34  Res  __PROW
 0009:BD44  Res  SETPRC
 0009:BFFA  Res  __EJECT
 0009:C162  Res  __CQOUT
 0009:C188  Res  QQOUT
 0009:C24E  Res  QOUT
 0009:C264  Res  __XSETCURSOR
 0009:C2A2  Res  __SETPOS
 0009:C2F0  Res  __SETPOSBS
 0009:C328  Res  DISPOUT
 0009:C402  Res  __DEVPOS
 0009:C48A  Res  DEVOUT
 0009:C58A  Res  __ROW
 0009:C5B4  Res  __COL
 0009:C934  Res  __XHELP
 0009:CA72  Res  __TERMSLR
 0009:CB22  Res  __PRINTOUT
 0009:CB48  Res  __CONOUT
 0009:CD28  Res  __COUTSTD
 0009:CD4A  Res  __COUTERR
 0009:CD6C  Res  __ERRMSG
 0009:CD7E  Res  __ERRMSGN
 0009:CDF8  Res  ALERT
 0009:D1DA  Res  __NONOALER
 0009:D1E2  Res  OUTSTD
 0009:D24E  Res  OUTERR
 0009:D2BA  Res  __OUTINI
 0009:D32A  Res  __FIXLEN
 0009:D450  Res  __SPTOQ
 0009:D482  Res  __SPTOL
 0009:D4B8  Res  __PUTQ
 0009:D4DA  Res  __PUTL
 0009:D4F6  Res  __PUTLN
 0009:D51A  Res  __PUTCL
 0009:D556  Res  __PUTC
 0009:D58A  Res  __PUTSYM
 0009:D5A8  Res  __PARAM
 0009:D61C  Res  __LPARAM
 0009:D67A  Res  __ISAVERET
 0009:D69A  Res  __RETL
 0009:D6B2  Res  __RETQ
 0009:D6D0  Res  __RETC
 0009:DD10  Res  __IMVCLEAN
 0009:DDB2  Res  __IMVWIPE
 0009:DE9A  Res  __IGETM
 0009:DEFE  Res  __XPUSHM
 0009:DF3C  Res  __XPOPM
 0009:DFA4  Res  __IPUBLICS
 0009:DFB8  Res  __QQPUB
 0009:DFE2  Res  __IPRIVATES
 0009:DFF8  Res  __IPARAMS
 0009:E0E4  Res  __IPUSHM
 0009:E14C  Res  __CALLERPOPM
 0009:E286  Res  __IPOPM
 0009:E2D4  Res  __IPUSHMR
 0009:E39E  Res  __IPUSHLR
 0009:E406  Res  __IPUSHFLR
 0009:E46E  Res  __IPUSHSR
 0009:E4D6  Res  __ISINIT
 0009:E536  Res  __ISFRAME
 0009:E548  Res  __GETGRIP
 0009:E5A6  Res  __DROPGRIP
 0009:E5BE  Res  __IPUSHBLOCK
 0009:E6D6  Res  __IZZBLOCK
 0009:E826  Res  __IXBLOCK
 0009:EA6E  Res  __IZZACT
 0009:EBAE  Res  __CEVAL0
 0009:EBD8  Res  __CEVAL1
 0009:EC0E  Res  __ACTINFO
 0009:EC68  Res  __ACTCOUNT
 0009:ED00  Res  __STACK_EXIT
 0009:EDA4  Res  __STACK_INIT
 0009:EFAA  Res  BLILOCAVL
 0009:EFB3  Res  BLILOCTOT
 0009:EFC8  Res  BLILOCUSE
 0009:EFD1  Res  BLISTCAVL
 0009:EFDD  Res  BLISTCSHR
 0009:EFF2  Res  BLISTCTOT
 0009:EFF7  Res  BLISTCUSE
 0009:F022  Res  __DYNPATCHER
 0009:F02A  Res  __DYN_INIT
 0009:F035  Res  __DYN_RELEASE
 0009:F03C  Res  __DYN_GETNBRPAGES
 0009:F074  Res  __DYN_GETPAGE
 0009:F0D9  Res  __DYN_FNAME
 000A:0002  Res  __PARSE_
 000A:1024  Res  __LEX_
 000A:164E  Res  __MAC_IMMED
 000A:1790  Res  __DBGMACRO
 000A:1840  Res  __WAVE_
 000A:1952  Res  __WAVEPOP_
 000A:19D6  Res  __WAVEP_
 000A:1A5A  Res  __WAVEL_
 000A:1A72  Res  __WAVEA_
 000A:1C90  Res  __WAVEQ_
 000A:1CC6  Res  __WAVEPOPQ_
 000A:1D02  Res  __WAVEF_
 000A:1D80  Res  __WAVEPOPF_
 000A:1E04  Res  __WSYMBOL_
 000A:2182  Res  __TYPE_
 000A:223C  Res  _AMBIGBLOCK
 000A:2432  Res  _DOSTUFF
 000A:26DA  Res  __PLANK_INIT
 000A:2707  Res  __TPLANK
 000A:2740  Res  _ERRORBUILD
 000A:27AD  Res  _ERRORCYCLE
 000A:280D  Res  __PLANKTON
 000A:2899  Res  __SPLANKTON
 000A:28B8  Res  __DPLANKTON
 000A:2ADF  Res  _DBGENTRY
 000A:2AFD  Res  _DBGEXIT
 000A:2B1B  Res  __NOCODE
 000A:2B23  Res  __DYNBADNEWS
 000A:2B2E  Res  __0ERR
 000A:2B38  Res  __0ENDPROC
 000A:2B4B  Res  __0NOP
 000A:2B4E  Res  __0LINE
 000A:2B8F  Res  __0EVENTS
 000A:2BA3  Res  __0JMP
 000A:2BAA  Res  __0JF
 000A:2BC8  Res  __0JFPT
 000A:2BE9  Res  __0JT
 000A:2C07  Res  __0JTPF
 000A:2C28  Res  __0JDBG
 000A:2C48  Res  __0UNDEF
 000A:2C50  Res  __0TRUE
 000A:2C5F  Res  __0FALSE
 000A:2C6C  Res  __0NULL
 000A:2C85  Res  __0ZER0
 000A:2C9A  Res  __0ONE1
 000A:2CB1  Res  __0PUSHW
 000A:2CC6  Res  __0PUSHI
 000A:2CDE  Res  __0PUSHN
 000A:2D08  Res  __0PUSHC
 000A:2D30  Res  __0PUSHBL
 000A:2D62  Res  __0ZZBLOCK
 000A:2D74  Res  __0DO
 000A:2E63  Res  __DDO
 000A:2F5F  Res  __XDO
 000A:2F81  Res  __0FUNC
 000A:3092  Res  __0XBLOCK
 000A:310A  Res  __XEVAL
 000A:31D6  Res  __0SEND
 000A:32C7  Res  __0CALL
 000A:33AC  Res  __0PCOUNT
 000A:33C4  Res  __0FRAME
 000A:340D  Res  __0SINIT
 000A:3435  Res  __0SFRAME
 000A:3455  Res  __0PUBLICS
 000A:346E  Res  __0PRIVATES
 000A:3487  Res  __0PARAMS
 000A:34A0  Res  __0ARRAYATI
 000A:34C7  Res  __0ARRAYAT
 000A:3533  Res  __0ARRAYPUTI
 000A:355A  Res  __0ARRAYPUT
 000A:35C6  Res  __0MAKEA
 000A:35DF  Res  __0MAKELA
 000A:35F8  Res  __0PUSHL
 000A:363D  Res  __0POPL
 000A:368B  Res  __0PUSHLR
 000A:36A4  Res  __0PUSHFL
 000A:36EC  Res  __0POPFL
 000A:3734  Res  __0PUSHFLR
 000A:375E  Res  __0PUSHS
 000A:3775  Res  __0POPS
 000A:378C  Res  __0PUSHSR
 000A:37A5  Res  __0PUSHM
 000A:37CD  Res  __0MPUSHM
 000A:37EB  Res  __0POPM
 000A:3813  Res  __0MPOPM
 000A:3831  Res  __0PUSHMR
 000A:3859  Res  __0MPUSHMR
 000A:3877  Res  __0PUSHF
 000A:389F  Res  __0MPUSHF
 000A:38BD  Res  __0POPF
 000A:38E5  Res  __0MPOPF
 000A:3903  Res  __0PUSHQF
 000A:392B  Res  __0MPUSHQF
 000A:3949  Res  __0POPQF
 000A:3971  Res  __0MPOPQF
 000A:398F  Res  __0PUSHV
 000A:39B7  Res  __0MPUSHV
 000A:39D5  Res  __0PUSHRV
 000A:39F3  Res  __0SAVE_RET
 000A:39FA  Res  __0DOOP
 000A:3A00  Res  __0QSELF
 000A:3A0A  Res  __0POP
 000A:3A10  Res  __0PUSHA
 000A:3A69  Res  __0MPUSHA
 000A:3A8B  Res  __0PUSHP
 000A:3A8E  Res  __0MPUSHP
 000A:3A91  Res  __0SYMBOL
 000A:3AB5  Res  __0SYMF
 000A:3ADE  Res  __0MSYMBOL
 000A:3AF4  Res  __0MSYMF
 000A:3B0F  Res  __0BEGIN_SEQ
 000A:3B36  Res  __0BREAK
 000A:3B3D  Res  __0END_SEQ
 000A:3B50  Res  _COERCENUMS
 000A:3BC7  Res  _COERCEDNUMS
 000A:3C77  Res  __0JNEI
 000A:3CB7  Res  __0JISW
 000A:3CF7  Res  __XEQ
 000A:3D24  Res  __0EEQ
 000A:3E2D  Res  __0EQ
 000A:3EF6  Res  __0NE
 000A:3FC2  Res  __0LT
 000A:407E  Res  __XLT
 000A:40B3  Res  __0LE
 000A:416F  Res  __0GT
 000A:422B  Res  __0GE
 000A:42E7  Res  __0NOT
 000A:42FB  Res  __0AND
 000A:4318  Res  __0OR
 000A:4335  Res  __0NEGATE
 000A:4394  Res  __0ABS
 000A:43FD  Res  __0PLUS
 000A:4576  Res  __0MINUS
 000A:4655  Res  __0MULT
 000A:46D7  Res  __0DIVIDE
 000A:4772  Res  __0DEC
 000A:47D5  Res  __0INC
 000A:5DB2  Res  __GETTYPE
 000A:5E2C  Res  __GETPOS
 000A:5E56  Res  __GETDECPO
 000A:5E80  Res  __GETCHANG
 000A:5EAA  Res  __GETCLEAR
 000A:5ED4  Res  __GETMINUS
 000A:5EFE  Res  __GETTYPEO
 000A:5F28  Res  __GETREJEC
 000A:5F52  Res  __GETSETPO
 000A:5FBE  Res  __GETSETCH
 000A:6014  Res  __GETSETCL
 000A:606A  Res  __GETSETMI
 000A:60C0  Res  __GETSETFO
 000A:6282  Res  __GETKILLF
 000A:62F6  Res  __GETASSIG
 000A:643E  Res  __GETUPDAT
 000A:64EA  Res  __GETUNTRA
 000A:6514  Res  __GETREFOR
 000A:659A  Res  __GETRESET
 000A:6688  Res  __GETDISPL
 000A:67CC  Res  __GETINSER
 000A:67D8  Res  __GETOVERS
 000A:6840  Res  __GETLEFT
 000A:684C  Res  __GETRIGHT
 000A:6858  Res  __GETHOME
 000A:6864  Res  __GETEND
 000A:6870  Res  __GETWORDL
 000A:687C  Res  __GETWORDR
 000A:6888  Res  __GETDELET
 000A:6894  Res  __GETWORDD
 000A:68A0  Res  __GETRITED
 000A:68AC  Res  __GETBACKS
 000A:68E6  Res  __TINIT
 000A:6934  Res  __TEND
 000A:697C  Res  __FSCREATE
 000A:69A9  Res  __TCTEMP
 000A:6A3A  Res  __FSOPEN
 000A:6A6B  Res  __FSCLOSE
 000A:6A8D  Res  __FSREAD
 000A:6ABA  Res  __FSWRITE
 000A:6AE7  Res  __FSSEEK
 000A:6B20  Res  __FSLOCK
 000A:6B5F  Res  __TMNAME
 000A:6B95  Res  __FSDELETE
 000A:6BB9  Res  __FSRENAME
 000A:6BE0  Res  __THCOUNT
 000A:6C24  Res  __FSCOMMIT
 000A:6C3E  Res  __FSERROR
 000A:6C63  Res  __TISDEVICE
 000A:6C82  Res  __TDEVRAW
 000A:6CBE  Res  __F_FIRST
 000A:6CE3  Res  __F_NEXT
 000A:6CFE  Res  __DSPACE
 000A:6D22  Res  __TMKDIR
 000A:6D4F  Res  __TRMDIR
 000A:6D7C  Res  __TCHDIR
 000A:6DA9  Res  __TCURDRV
 000A:6DC5  Res  __TCHDRV
 000A:6DF0  Res  __TISDRV
 000A:6E14  Res  __TCURDIR
 000A:6F5C  Res  __DDMYTODATE
 000A:703E  Res  __DDATETODMYD
 000A:7174  Res  __DSYSDATE
 000A:7198  Res  __DALPHATODATEFMT
 000A:72AA  Res  __DALPHATODATEDBF
 000A:7364  Res  __DDATETOALPHAFMT
 000A:745A  Res  __DDATETOALPHADBF
 000A:74E6  Res  __DSETFMT
 000A:769C  Res  __DSETEPOCH
 000A:76B6  Res  __OSDATE
 000A:76DD  Res  __OSTIME
 000A:778E  Res  __SCAN_FILENAME
 000A:78C0  Res  __TXOPEN
 000A:7F66  Res  FILE
 000A:7F94  Res  __FSEXTOPEN
 000A:801C  Res  __GETENV
 000A:80F0  Res  __DVLT
 000A:8118  Res  __DVLE
 000A:8140  Res  __DVEQ
 000A:8168  Res  __DVGE
 000A:8190  Res  __DVGT
 000A:81B8  Res  __DVNE
 000A:81E0  Res  __DVLTZ
 000A:8208  Res  __DVEQZ
 000A:8230  Res  __DVMOD
 000A:827A  Res  __DVNEG
 000A:82AA  Res  __DVABS
 000A:82FC  Res  __DVINC
 000A:8330  Res  __DVDEC
 000A:8364  Res  __DVINT
 000A:83CE  Res  __DVPOW
 000A:8418  Res  __DVLOG
 000A:8456  Res  __DVSQR
 000A:8494  Res  __DVEXP
 000A:84D2  Res  __DVRND
 000A:860C  Res  __SQU
 000A:8635  Res  __AWK
 000A:8640  Res  __SYSLEVEL
 000A:8644  Res  __SYSEXIT
 000A:86DC  Res  __SYSRESUME
 000A:870C  Res  __SYSSUSPEND
 000A:873E  Res  __SYSINIT
 000A:8860  Res  __SYSPOSTARGS
 000A:8878  Res  __SYSERRORLEVEL
 000A:887C  Res  ERRORLEVEL
 000A:88AA  Res  __QUIT
 000A:8994  Res  __APPINITREGISTER
 000A:8B1A  Res  __APPMAIN
 000A:8C44  Res  __APPEXITREGISTER
 000A:8CDC  Res  __APPEXIT
 000A:8D58  Res  __SYSHARDINIT
 000A:8D88  Res  _TERM
 000A:8DB6  Res  _MAIN
 000A:8F7C  Res  __UPREFP
 000A:9020  Res  __UPREF
 000A:90B0  Res  SYSINIT
 000A:90CA  Res  __SYSTEM
 000A:91F2  Res  __RUN
 000A:979C  Res  __EVSENDSTRUCT
 000A:9856  Res  __EVSENDID
 000A:986C  Res  __EVPOSTSTRUCT
 000A:988C  Res  __EVPOSTID
 000A:98BA  Res  __EVREGRECEIVERFUNC
 000A:99EC  Res  __EVDEREGRECEIVER
 000A:9A1A  Res  __SYSREGLOW
 000A:9A32  Res  __EVREGTYPE
 000A:9A44  Res  __EVSEND
 000A:9A4A  Res  __EVPOST
 000A:9A9A  Res  __EVMODALREAD
 000A:9B5E  Res  __EVTRANSLATE
 000A:9BA8  Res  __EVBREAKENABLE
 000A:9BDE  Res  __EVSCROLLPAUSE
 000A:9C34  Res  __EVSTROBE
 000A:9C58  Res  __BREAK_CYCLE
 000A:9D08  Res  SETCANCEL
 000A:9DC8  Res  ALTD
 000A:A01A  Res  __EVENT_INIT
 000A:A170  Res  __DYNFREEMODULE
 000A:A290  Res  __DYNGETORDADDR
 000A:A32C  Res  __DYNGETNAMEDADDR
 000A:A3FE  Res  __DYNLOADMODULE
 000A:A4CA  Res  __DYNINIT
 000A:A4DA  Res  __DYNINI
 000A:A504  Res  _DMOD_COUNT
 000A:A519  Res  _DINIT_INIT
 000A:A872  Res  _WEED_DIGESTR
 000A:A89C  Res  __GET_SYM
 000A:A968  Res  __CHK_SYM
 000A:A9CC  Res  __CHK_SYM2
 000A:AAE6  Res  __SYM_SEARCH
 000A:AB32  Res  __NEXT_SYM
 000A:ABB8  Res  __SYM_INIT
 000A:AC58  Res  __XPUSHF
 000A:ADDE  Res  __XPOPF
 000A:AE4A  Res  __IPUSHV
 000A:AED8  Res  __IPUSHF
 000A:AF52  Res  __IPOPF
 000A:AFCC  Res  __IPUSHQF
 000A:B052  Res  __IPOPQF
 000A:B0D8  Res  __FCHECK
 000A:B184  Res  __ICALL
 000A:B2E6  Res  FIELDGET
 000A:B35E  Res  FIELDPUT
 000A:B400  Res  FIELDPOS
 000A:B77E  Res  __MDCREATE
 000A:B882  Res  __MDADD
 000A:B9D8  Res  __MDASSOCIATE
 000A:B9F2  Res  __CLASSNEW
 000A:BA7A  Res  __CLASSADD
 000A:BB24  Res  __CLASSNAM
 000A:BB8C  Res  __CLASSSEL
 000A:BC96  Res  __CLASSINS
 000A:BEAA  Res  __ISENDP
 000A:BFAA  Res  __SETSTRUCT
 000A:C126  Res  SET
 000A:C69A  Res  __STRMINUS
 000A:C790  Res  __MIN
 000A:C866  Res  __MAX
 000A:C940  Res  __MODULUS
 000A:CA0C  Res  __INT
 000A:CACE  Res  __ROUND
 000A:CB62  Res  __EXPON
 000A:CCA2  Res  __LOGQ
 000A:CCAE  Res  __QEXP
 000A:CCBA  Res  __QSQRT
 000A:CCC6  Res  __CHR
 000A:CD14  Res  __SPACE
 000A:CD9E  Res  __SUB3
 000A:CEE6  Res  __SUB2
 000A:CFD2  Res  __LEFT
 000A:D076  Res  __STR3
 000A:D186  Res  __STR2
 000A:D24E  Res  __STR1
 000A:D302  Res  __TRIM
 000A:D37E  Res  __LTRIM
 000A:D40C  Res  __UPPER
 000A:D46E  Res  __LOWER
 000A:D4D0  Res  __REPLICATE
 000A:D5F6  Res  __VAL
 000A:D6E8  Res  __LEN
 000A:D730  Res  __EMPTY
 000A:D812  Res  __AT
 000A:D954  Res  __INSTR
 000A:DA8C  Res  __ASC
 000A:DAD2  Res  __TIME
 000A:DB76  Res  __SECONDS
 000A:DC32  Res  __DATE
 000A:DC52  Res  __DAY
 000A:DCA0  Res  __MONTH
 000A:DCF0  Res  __YEAR
 000A:DD40  Res  __DOW
 000A:DD90  Res  __CMONTH
 000A:DDE0  Res  __CDOW
 000A:DE30  Res  __DTOC
 000A:DE72  Res  __CTOD
 000A:DEB8  Res  __DTOS
 000A:DEFA  Res  __WORD
 000A:DF38  Res  __VALTYPE
 000A:DFD4  Res  LEFT
 000A:DFDE  Res  ADEL
 000A:E0C2  Res  ATAIL
 000A:E26A  Res  __MXRELEAS
 000A:E2AE  Res  __MRELEASE
 000A:E32E  Res  __MCLEAR
 000A:E334  Res  __SETCENTU
 000A:E42C  Res  __CREATEERRORDICT
 000A:E690  Res  _TB
 000A:E6E2  Res  __IERROR
 000A:E790  Res  __AFAIL
 000A:E824  Res  __SODIUM
 000A:E830  Res  __SALTY_DYN
 000A:E8B6  Res  __ECANCEL
 000A:E922  Res  ERRORINHAN
 000A:EA62  Res  __EGENCODE
 000A:EA76  Res  __ESEVERIT
 000A:EA8A  Res  __ECANRETR
 000A:EAA2  Res  __ECANDEFA
 000A:EABA  Res  __ECANSUBS
 000A:EAD2  Res  __ETRIES
 000A:EAE6  Res  __EOSCODE
 000A:EAFA  Res  __ESUBCODE
 000A:EB0E  Res  __ESUBSYST
 000A:EB1A  Res  __EDESCRIP
 000A:EB26  Res  __EOPERATI
 000A:EB32  Res  __EFILENAM
 000A:EB3E  Res  __EPARAMS
 000A:EB4A  Res  __ECARGO
 000A:EB56  Res  __ESETGENC
 000A:EC1E  Res  __ESETSUBC
 000A:EC78  Res  __ESETOSCO
 000A:ECD2  Res  __ESETSEVE
 000A:ED2C  Res  __ESETCAND
 000A:ED70  Res  __ESETCANR
 000A:EDB4  Res  __ESETCANS
 000A:EDF8  Res  __ESETTRIE
 000A:EE52  Res  __ESETSUBS
 000A:EE62  Res  __ESETOPER
 000A:EE72  Res  __ESETDESC
 000A:EE82  Res  __ESETFILE
 000A:EE92  Res  __ESETPARA
 000A:EEA2  Res  __ESETCARG
 000A:EEB2  Res  ERRORNEW
 000A:F14A  Res  __EOP
 000A:F202  Res  __EERROR
 000A:F264  Res  __ENOALIAS
 000A:F310  Res  __ENOVAR
 000A:F380  Res  __EERRORP
 000A:F494  Res  __EARG
 000A:F4B0  Res  __ENOTABLE
 000A:F52A  Res  __ENOFUNC
 000A:F5A0  Res  __EREGNFHANDLER
 000A:F5CA  Res  __ENOMETHOD
 000A:F678  Res  __EPSTACK
 000A:F68E  Res  ERRORBLOCK
 000A:F6EE  Res  DOSERROR
 000A:F716  Res  __ESETDOSERROR
 000A:F722  Res  NETERR
 000A:F758  Res  __ESETNETERR
 000A:F768  Res  __ECLASSNA
 000A:F776  Res  __SEQREG
 000A:F80E  Res  __IBEGINSEQ
 000A:F8B0  Res  __IENDSEQ
 000A:F8EC  Res  __IBREAKCONT
 000A:F94E  Res  __END_SEQ
 000A:F952  Res  AEVAL
 000A:FAD4  Res  __KMAPSCAN
 000A:FC03  Res  __KMAPSET
 000A:FC5A  Res  __KMAPCLEAR
 000A:FCB2  Res  __MEMSUBFREE
 000A:FCC6  Res  __MEMSUBALLOC
 000A:FD57  Res  __MEMSUBALLOCFIRST
 000A:FD69  Res  __MEMSUBINFO
 000A:FDE3  Res  __MEMSUBAVAIL
 000A:FDF2  Res  __MEMSUBMAX
 000A:FE03  Res  __MEMSUBEXTENT
 000A:FE17  Res  __MEMSUBEMPTY
 000A:FE2E  Res  __MEMSUBREINIT
 000A:FE7B  Res  __MEMSUBINIT
 000A:FEB4  Res  __MEMSUBNEXT
 000A:FEF9  Res  __MEMSUBCHECK
 000A:FEFE  Res  __OSALLOCDEFSEG
 000A:FF28  Res  __OSAVAIL
 000A:FF38  Res  __OSALLOC
 000A:FF4C  Res  __OSSIZE
 000A:FF64  Res  __OSSTACKBASE
 000B:0000  Res  __VMACRO
 000B:0062  Res  __BMACRO
 000B:00C0  Res  FIELDBLOCK
 000B:0180  Res  FIELDWBLOC
 000B:0276  Res  MEMVARBLOC
 000B:0878  Res  __DYNX_READ
 000B:09C2  Res  __DYNXSLR
 000B:0A52  Res  __INSTD_
 000B:0B24  Res  __GTWCREATE
 000B:0B86  Res  __GTWDESTROY
 000B:0BDA  Res  __GTWFLASH
 000B:0CBA  Res  __GTWAPP
 000B:0CCE  Res  __GTWCURRENT
 000B:0DE0  Res  __GTWPOS
 000B:0E12  Res  __GTWVIS
 000B:0F62  Res  __GTMODALREAD
 000B:1984  Res  __GTSLR
 000B:19F6  Res  DISPBEGIN
 000B:19FC  Res  DISPEND
 000B:1A02  Res  DISPCOUNT
 000B:1A24  Res  __GTSCRDIM
 000B:1A3E  Res  __GTISCOLOR
 000B:1A4E  Res  __GTMAXROW
 000B:1A58  Res  __GTMAXCOL
 000B:1A62  Res  __GTSETCURSOR
 000B:1A82  Res  __GTGETCURSOR
 000B:1A98  Res  __GTSETPOS
 000B:1ABA  Res  __GTGETPOS
 000B:1ADE  Res  __GTSETCOLOR
 000B:1B0E  Res  __GTGETCOLOR
 000B:1B32  Res  __GTSETBORDER
 000B:1B92  Res  __GTBEGINWRITE
 000B:1D5E  Res  __GTENDWRITE
 000B:1E5A  Res  __GTSCROLL
 000B:1EE0  Res  __GTWRITEAT
 000B:1F4A  Res  __GTWRITE
 000B:1F76  Res  __GTWRITECON
 000B:2110  Res  __GTREPCHAR
 000B:2162  Res  __GTRECTSIZE
 000B:21A6  Res  __GTSAVE
 000B:2200  Res  __GTREST
 000B:225A  Res  __GTBOX
 000B:22C8  Res  __GTBOXS
 000B:22E6  Res  __GTBOXD
 000B:2304  Res  __GTSETSNOWFLAG
 000B:233C  Res  __GTSETBLINK
 000B:235C  Res  __GTFLUSHCURSOR
 000B:2370  Res  __GTPREEXT
 000B:23A2  Res  __GTPOSTEXT
 000B:240C  Res  __GTSETMODE
 000B:2460  Res  __GTDISPCOUNT
 000B:2478  Res  __GTDISPBEGIN
 000B:249C  Res  __GTDISPEND
 000B:24AC  Res  DISPBOX
 000B:2632  Res  __TCVT
 000B:27C4  Res  MAXROW
 000B:27D4  Res  MAXCOL
 000B:27E4  Res  _CPARSE
 000B:2A2E  Res  _SPARSE
 000B:2B34  Res  __XSETCOLOR
 000B:2DBC  Res  SETCOLOR
 000B:2DD6  Res  SETBLINK
 000B:2EDC  Res  COLORSELEC
 000B:2F00  Res  SETCURSOR
 000B:2F1A  Res  SAVESCREEN
 000B:311C  Res  RESTSCREEN
 000B:32F6  Res  SCROLL
 000B:33D0  Res  __SETHELPK
 000B:340C  Res  __PARSEATS
 000B:35AC  Res  __PICTLITERAL
 000B:3666  Res  __DATETEMPLATE
 000B:3C82  Res  __TBUFFPREP
 000B:3D3A  Res  __ZZTRAN
 000B:40CC  Res  __ZTRAN
 000B:423C  Res  __XTRAN
 000B:427C  Res  __YTRAN
 000B:42BE  Res  __TRANS
 000B:4338  Res  DEVOUTPICT
 000B:4406  Res  TRANSFORM
 000B:4432  Res  __GETSETUP
 000B:4942  Res  __GETCLASS
 000B:4E54  Res  __GET
 000B:4E5E  Res  __GETA
 000B:4E6A  Res  _GETGETCONTEXT
 000B:4EC4  Res  _SETGETCONTEXT
 000B:4F06  Res  _DISPLAYTHEGET
 000B:5174  Res  __GETROW
 000B:51BC  Res  __GETCOL
 000B:5204  Res  __GETSETRO
 000B:5298  Res  __GETSETCO
 000B:532E  Res  __GETVARGE
 000B:534C  Res  __GETVARPU
 000B:53A4  Res  __GETCOLOR
 000B:546E  Res  __GETSETCS
 000B:55EC  Res  __GETCDISP
 000B:5612  Res  __TOGET
 000B:5638  Res  GETNEW
 000B:56C6  Res  __GETHASFO
 000B:56E8  Res  __GETBUFFE
 000B:5714  Res  __GETORIGI
 000B:5740  Res  __GETSETCA
 000B:5770  Res  __GETSETBL
 000B:57A2  Res  __GETSETNA
 000B:57D4  Res  __GETSETPI
 000B:5806  Res  __GETSETPB
 000B:5838  Res  __GETSETPR
 000B:586A  Res  __GETSETSU
 000B:589C  Res  __GETSETEX
 000B:58CE  Res  __GETSETRE
 000B:5900  Res  __GETSETBU
 000B:5936  Res  __GETBADDA
 000B:5996  Res  __GETUNDO
 000B:59D8  Res  __GETTODEC
 000B:5A64  Res  __GETDWLEF
 000B:5A90  Res  READVAR
 000B:5ACC  Res  __ATPROMPT
 000B:5B14  Res  __MENUTO
 000B:5F4C  Res  __ITEMSIZE
 000B:5F8C  Res  __ITEMRELEASE
 000B:5FAA  Res  __ITEMNEW
 000B:5FBA  Res  __ITEMTYPE
 000B:5FC8  Res  __ITEMPUTL
 000B:5FF8  Res  __ITEMPUTCL
 000B:6038  Res  __ITEMPUTC
 000B:6060  Res  __ITEMCOPYC
 000B:60A8  Res  __ITEMPUTNL
 000B:60DA  Res  __ITEMPUTND
 000B:6124  Res  __ITEMPUTDS
 000B:617A  Res  __ITEMGETC
 000B:6188  Res  __ITEMFREEC
 000B:619E  Res  __ITEMGETNL
 000B:61AC  Res  __ITEMGETL
 000B:61B8  Res  __ITEMGETDS
 000B:61E0  Res  __ITEMGETND
 000B:6246  Res  __ITEMPARAM
 000B:627E  Res  __ITEMRETURN
 000B:62A2  Res  __ITEMARRAYNEW
 000B:62C0  Res  __ITEMARRAYGET
 000B:62FE  Res  __ITEMARRAYPUT
 000B:632C  Res  __EVALNEW
 000B:6352  Res  __EVALPUTPARAM
 000B:6370  Res  __EVALLAUNCH
 000B:649E  Res  __EVALRELEASE
 000B:650A  Res  _DTXCONDSE
 000B:654C  Res  DBCREATEIN
 000B:6580  Res  DBSETINDEX
 000B:65A8  Res  DBCLEARIND
 000B:65CA  Res  DBREINDEX
 000B:65EC  Res  DBSETORDER
 000B:6630  Res  INDEXEXT
 000B:6652  Res  INDEXKEY
 000B:66A0  Res  INDEXORD
 000B:6738  Res  ORDLISTADD
 000B:67EC  Res  ORDLISTCLE
 000B:6816  Res  ORDLISTREB
 000B:6840  Res  ORDSETFOCU
 000B:68D2  Res  ORDBAGEXT
 000B:6A3A  Res  ORDBAGNAME
 000B:6A6C  Res  ORDNAME
 000B:6AB4  Res  ORDNUMBER
 000B:6AFE  Res  ORDKEY
 000B:6B48  Res  ORDFOR
 000B:6B92  Res  ORDCONDSET
 000B:6BC4  Res  ORDDESTROY
 000B:6C24  Res  ORDCREATE
 000B:6E06  Res  __ISRDD
 000B:7030  Res  __ISRDDTYPE
 000B:72D8  Res  __DBUNLOADALL
 000B:7394  Res  __RDDDISINHERIT
 000B:73E4  Res  __RDDINHERIT
 000B:74A6  Res  __XFTABLEGETPTR
 000B:74F8  Res  __XFTABLEDISCARDPTR
 000B:759C  Res  __RDDSERVERSHUTDOWN
 000B:75CA  Res  RDDREGISTE
 000B:767C  Res  RDDLIST
 000B:7794  Res  __RDDEXTENDTYPE
 000B:7830  Res  __RDDFIELDTYPE
 000B:78CC  Res  __DEFDRIVER
 000B:7936  Res  RDDNAME
 000B:79A0  Res  RDDSETDEFA
 000B:7A46  Res  DBSETDRIVE
 000B:7A4C  Res  DBCLOSEALL
 000B:7AA6  Res  DBCLOSEARE
 000B:7AE2  Res  DBUSEAREA
 000B:7DC0  Res  DBTABLEEXT
 000B:7E8E  Res  __DBCMDSLR
 000B:7EF2  Res  DBCLEARFIL
 000B:7F38  Res  DBSETFILTE
 000B:7F9E  Res  DBFILTER
 000B:8004  Res  DBCLEARREL
 000B:8036  Res  DBSETRELAT
 000B:8180  Res  DBRELATION
 000B:8200  Res  DBRSELECT
 000B:8266  Res  __DBFIELDINDEX
 000B:82CE  Res  ___DBBUILDTRANS
 000B:8488  Res  __DBTRANS
 000B:85B2  Res  __DBTRANSR
 000B:867E  Res  __DBSETLOC
 000B:8744  Res  __DBSETFOU
 000B:878A  Res  __XPARAMERROR
 000B:87A4  Res  __XNOTABLEERROR
 000B:87BA  Res  __XSELECT
 000B:884C  Res  __STRIMTOUPPER
 000B:9FB4  Res  DBSTRUCT
 000B:A1A8  Res  __DBLOCATE
 000B:A2F4  Res  __DBCONTIN
 000B:A400  Res  __DBCOPY
 000B:A4F0  Res  __DBAPP
 000B:A5F8  Res  __FLEDIT
 000B:AA40  Res  __XPAGE_READ
 000B:AAFC  Res  __XPAGE_UPDATE
 000B:ABBA  Res  __PAGE_UNLOCK
 000B:AC2A  Res  __PAGE_READLOCK
 000B:AD3E  Res  __PAGE_READ
 000B:AE0C  Res  __PAGE_UPDATE
 000B:AEDC  Res  __PAGE_WRITE
 000B:AF26  Res  __PAGE_FLUSH
 000B:AF74  Res  __PAGE_CLEAR
 000B:AFBA  Res  __PAGE_APPEND
 000B:B246  Res  __DISKIOSLR
 000B:B2BA  Res  FCREATE
 000B:B32A  Res  FOPEN
 000B:B3C2  Res  FCLOSE
 000B:B404  Res  FREAD
 000B:B4E8  Res  FREADSTR
 000B:B594  Res  FWRITE
 000B:B630  Res  FSEEK
 000B:B704  Res  FERASE
 000B:B746  Res  FRENAME
 000B:B7A2  Res  FERROR
 000B:B7B0  Res  __EMMALLOCPAGES
 000B:B7C6  Res  __EMMCONTEXTSAVE
 000B:B7D6  Res  __EMMCONTEXTREST
 000B:B7E6  Res  __EMMGETUNALLOCPAGECOUNT
 000B:B7FB  Res  __EMMGETALLOCPAGECOUNT
 000B:B810  Res  __EMMGETTOTALPAGECOUNT
 000B:B824  Res  __EMMDEALLOCPAGES
 000B:B83C  Res  __EMMINSTALLED
 000B:B864  Res  __EMMMAPUNMAPPAGE
 000B:B87E  Res  __EMMGETPAGEFRAMESEG
 000B:B898  Res  __EMMGETVERSION
 000B:B8D6  Res  GETAPPLYKE
 000B:BBC2  Res  READMODAL
 000B:BCC4  Res  GETREADER
 000B:BD64  Res  GETPREVALI
 000B:BE08  Res  GETPOSTVAL
 000B:BF1A  Res  GETDOSETKE
 000B:C778  Res  __SETFORMA
 000B:C7AE  Res  __KILLREAD
 000B:C7D0  Res  GETACTIVE
 000B:C806  Res  UPDATED
 000B:C828  Res  READEXIT
 000B:C856  Res  READINSERT
 000B:C96E  Res  RANGECHECK
 000B:CA72  Res  READKILL
 000B:CAA8  Res  READUPDATE
 000B:CADE  Res  READFORMAT
 000B:CB14  Res  __EXACTCMP
 000B:CD12  Res  _NATSORTVE
 000B:CD41  Res  __NATRDDVER
 000B:CD53  Res  __NLEXID
 000B:CDBD  Res  __NSCANID
 000B:CE3B  Res  __UPCASE
 000B:CE4E  Res  __LOCASE
 000B:CE61  Res  __CH_TYPE
 000B:CECA  Res  __NCOPYUC
 000B:CEE9  Res  __NCOPYLC
 000B:CF08  Res  __NTRIMLEN
 000B:CF29  Res  __NPREVI
 000B:CF3C  Res  __NNEXTI
 000B:CF53  Res  __NGET
 000B:CF68  Res  __NPUT
 000B:CF7D  Res  __TCMP
 000B:CFA5  Res  __DCMP
 000B:CFC6  Res  __XCMP
 000B:CFE0  Res  __SCANW
 000B:D014  Res  __SCANN
 000B:D062  Res  __NODE_SEARCH
 000B:D0BC  Res  __S_ORDER
 000B:D1BD  Res  _NATMSGVER
 000B:D1D6  Res  ISNEGATIVE
 000B:D223  Res  ISAFFIRM
 000B:D270  Res  NATIONMSG
 000B:D2B3  Res  __DAY_NAME
 000B:D2CB  Res  __MONTH_NAME
 000B:D2E3  Res  __YNSTR
 000B:D2F5  Res  __NATMSGVER
 000B:D307  Res  __ERRORDESC
 000B:D35F  Res  __NVERSION
 000B:D3C5  Res  _CLIPINTL
 000B:D424  Res  __V2ALIAS
 000B:D4E4  Res  DBEVAL
 000B:D5BC  Res  DBSEEK
 000B:D6A0  Res  DBSKIP
 000B:D700  Res  DBGOTOP
 000B:D728  Res  DBGOBOTTOM
 000B:D750  Res  DBGOTO
 000B:D794  Res  __XAPPEND
 000B:D7F0  Res  DBAPPEND
 000B:D84E  Res  DBDELETE
 000B:D876  Res  DBRECALL
 000B:D89E  Res  __DBPACK
 000B:D8C8  Res  __DBZAP
 000B:D8F2  Res  DBCOMMIT
 000B:D91A  Res  DBCOMMITAL
 000B:D958  Res  DBUNLOCK
 000B:D994  Res  DBUNLOCKAL
 000B:D9D8  Res  DBRLOCKLIS
 000B:DA46  Res  DBRLOCK
 000B:DAB4  Res  DBRUNLOCK
 000B:DAF8  Res  __LOCK
 000B:DB56  Res  __FLOCK
 000B:DBAC  Res  __EOF
 000B:DBEC  Res  __BOF
 000B:DC2A  Res  __FOUND
 000B:DC6A  Res  __DELETED
 000B:DCAA  Res  __RECNO
 000B:DD0C  Res  __LASTREC
 000B:DD52  Res  __FIELDNAME
 000B:DDC6  Res  __FCOUNT
 000B:DE06  Res  __FSELECT0
 000B:DE16  Res  __FSELECT1
 000B:DE6A  Res  USED
 000B:DE88  Res  ALIAS
 000B:DEF8  Res  __AXPRIN
 000B:DFC4  Res  __AXPROUT
 000B:E006  Res  DBSELECTAR
 000B:E594  Res  __DBOPENSD
 000B:E5B0  Res  DBCREATE
 000B:E5C6  Res  STRZERO
 000B:E65C  Res  GETENV
 000B:E6FC  Res  GETE
 000B:E702  Res  DISKSPACE
 000B:E7CE  Res  __COPYFILE
 000B:EA36  Res  ISPRINTER
 000B:EA7E  Res  TONE
 000B:EB33  Res  CURDIR
 000B:EBC2  Res  BIN2I
 000B:EC29  Res  BIN2W
 000B:EC94  Res  BIN2L
 000B:ED00  Res  I2BIN
 000B:ED84  Res  L2BIN
 000B:EE18  Res  ALLTRIM
 000B:EF38  Res  RIGHT
 000B:F04C  Res  RAT
 000B:F12E  Res  PADL
 000B:F276  Res  PADR
 000B:F3BC  Res  PADC
 000B:F502  Res  PAD
 000B:F508  Res  ISALPHA
 000B:F554  Res  ISDIGIT
 000B:F5A0  Res  ISUPPER
 000B:F616  Res  ISLOWER
 000B:F68C  Res  STRTRAN
 000B:FC5C  Res  STUFF
 000B:FD18  Res  HARDCR
 000C:0000  Res  MEMOLINE
 000C:02B0  Res  MLCOUNT
 000C:0406  Res  _FETCHAR
 000C:04C2  Res  _LINELEN
 000C:05F2  Res  _ASCANSUB
 000C:072A  Res  ASCAN
 000C:0A22  Res  ASORT
 000C:0AEE  Res  AFILL
 000C:0B32  Res  ACLONE
 000C:0BCA  Res  DEFPATH
 000C:0BEC  Res  __DEFPATH
 000C:0C64  Res  ADIR
 000C:0EF0  Res  DIRECTORY
 000C:3A00  Res  MEMOEDIT
 000C:4114  Res  __TSETCARG
 000C:413A  Res  __TSETCOLU
 000C:41B6  Res  __TCARGO
 000C:41D6  Res  __TCOLUMN
 000C:41FC  Res  __TCOLCOUN
 000C:421C  Res  __TSETRTOP
 000C:4270  Res  __TSETRLEF
 000C:42C6  Res  __TSETRBOT
 000C:4324  Res  __TSETRRIG
 000C:4380  Res  __TSETHEAD
 000C:43CA  Res  __TSETCOLS
 000C:4414  Res  __TSETFOOT
 000C:445E  Res  __TSETCOLO
 000C:44B4  Res  __TSETSKIP
 000C:4500  Res  __TSETTOP
 000C:454E  Res  __TSETBOTT
 000C:459C  Res  __TADDCOLU
 000C:45D0  Res  __TINSCOLU
 000C:4626  Res  __TDELCOLU
 000C:467C  Res  TBROWSENEW
 000C:47A2  Res  __CSETWIDT
 000C:47EA  Res  __CSETBLOC
 000C:4832  Res  __CSETDEFC
 000C:487C  Res  __CSETCOLO
 000C:48C8  Res  __CSETHEAD
 000C:4912  Res  __CSETFOOT
 000C:495C  Res  __CSETHSEP
 000C:49B0  Res  __CSETFSEP
 000C:4A04  Res  __CSETCOLS
 000C:4A58  Res  __CSETPICT
 000C:4A8A  Res  TBCOLUMNNE
 000C:4BAE  Res  TBROWSEDB
 000C:5F92  Res  ACHOICE
 000C:6390  Res  _PAN
 000C:7EC0  Res  __TCOLWIDT
 000C:7F22  Res  __TCURSROW
 000C:7F48  Res  __TROWCOUN
 000C:7F5C  Res  __TLEFTVIS
 000C:7F70  Res  __TRIGHTVI
 000C:7F84  Res  __TCURSCOL
 000C:7F98  Res  __TBBANG
 000C:7FAC  Res  __TEBANG
 000C:7FC0  Res  __TSTABLE
 000C:7FD4  Res  __TAUTOLIT
 000C:7FE8  Res  __TFREEZE
 000C:7FFC  Res  __TSETCONF
 000C:807C  Res  __TSETCURR
 000C:80DA  Res  __TSETCURC
 000C:8112  Res  __TSETBBAN
 000C:8146  Res  __TSETEBAN
 000C:817A  Res  __TSETSTAB
 000C:81AE  Res  __TSETAUTO
 000C:81E2  Res  __TSETFREE
 000C:830A  Res  __TUP
 000C:8316  Res  __TDOWN
 000C:8322  Res  __TLEFT
 000C:832E  Res  __TRIGHT
 000C:833A  Res  __TPGUP
 000C:8346  Res  __TPGDN
 000C:8352  Res  __THOME
 000C:835E  Res  __TBEND
 000C:836A  Res  __TPANLEFT
 000C:8376  Res  __TPANRIGH
 000C:8382  Res  __TGOTOP
 000C:838E  Res  __TGOBOTTO
 000C:839A  Res  __TPANHOME
 000C:83A6  Res  __TPANEND
 000C:83B2  Res  __THILITE
 000C:83BE  Res  __TDEHILIT
 000C:83CA  Res  __TCOLORRE
 000C:86B4  Res  __TINVALID
 000C:86C0  Res  __TREFRESH
 000C:86CC  Res  __TLINEFRE
 000C:86D8  Res  __TSTABILI
 000C:8718  Res  __TFORCEST
 000C:876E  Res  __TCLASSNA
 000C:877C  Res  __DTXGETFUNCTABLE
 000C:87B2  Res  _DTXINIT
 000C:87BA  Res  __DTXWEP
 000C:87D2  Res  __DTXPLACEKEYP
 000C:87DA  Res  __NEWINDEXLOCK
 000C:87DE  Res  NEWLOCKS
 000C:8866  Res  _NTXERR
 000C:8880  Res  __INDEXLOCKINIT
 000C:8A9E  Res  __INDEXREADLOCK
 000C:8B9C  Res  __INDEXREADUNLOCK
 000C:8BE8  Res  __INDEXWRITELOCK
 000C:8CD0  Res  __INDEXWRITEUNLOCK
 000C:8D46  Res  __INDEXLOCKEXIT
 000C:8E92  Res  DBFNTX
 000C:BA36  Res  __DTXSYSNAME
 000C:BB6C  Res  __DTXGOHOT
 000C:BBE2  Res  __DTXGOCOLD
 000C:BC6E  Res  __DTXGOTO
 000C:BCB4  Res  __DTXGOTOID
 000C:BCF4  Res  __DTXGOTOP
 000C:BDDE  Res  __DTXGOBOTTOM
 000C:BEC0  Res  __DTXSKIPRAW
 000C:C000  Res  __DTXSEEK
 000C:C218  Res  __DTXFORCEREL
 000C:C2CE  Res  __DTXFLUSH
 000C:C37A  Res  __DTXORDERLISTADD
 000C:C86E  Res  __DTXORDERLISTCLEAR
 000C:C910  Res  __DTXORDERLISTFOCUS
 000C:CAE8  Res  __DTXORDERLISTREBUILD
 000C:CBF8  Res  __DTXORDERCREATE
 000C:D63E  Res  __DTXORDERINFO
 000C:D7A0  Res  __DTXCLOSE
 000C:D7EC  Res  __DTXNEW
 000C:D834  Res  __DTXPACK
 000C:D860  Res  __DTXZAP
 000C:D88C  Res  __DTXSORT
 000C:DC06  Res  __DTXORDERCONDITION
 000C:E456  Res  __DTXPLACEKEY
 000C:EE20  Res  __BEEP_
 000C:F1AA  Res  TAKEOUT
 000C:F380  Res  AASKIP
 000C:F428  Res  ALENG
 000C:F498  Res  AT2CHAR
 000C:F5B0  Res  BLANKFIELD
 000C:F67E  Res  BLANKREC
 000C:F76A  Res  ISBLANKREC
 000C:F7D4  Res  SBCENTER
 000C:F866  Res  SBROWS
 000C:F8B4  Res  SBCOLS
 000C:F902  Res  SBSHADOW
 000C:FBDC  Res  SBUNSHADOW
 000C:FC78  Res  DAYSIN
 000C:FD30  Res  FMOVE2NEXT
 000C:FE12  Res  FMOVE2PREV
 000D:0000  Res  FMOVE2PRIO
 000D:0178  Res  SFREADLINE
 000D:0260  Res  GETDFP
 000D:02CA  Res  ISPART
 000D:0344  Res  ISVALFILE
 000D:07A6  Res  POPEX
 000D:09DA  Res  POPREAD
 000D:1006  Res  P_READY
 000D:143C  Res  P_RDYDELAY
 000D:147E  Res  PRNPORT
 000D:16E2  Res  PROPER
 000D:17AE  Res  SATTCOLOR
 000D:18A6  Res  SATTMONO
 000D:1968  Res  SATTDIRECT
 000D:1A50  Res  SATTGETMEM
 000D:1B54  Res  SATTGET
 000D:1C8C  Res  SATTPUT
 000D:1E10  Res  SATTPICK
 000D:1FAC  Res  SATTPICKPU
 000D:2188  Res  SATTPICKDE
 000D:2372  Res  SATTPUSH
 000D:23CC  Res  SATTPOP
 000D:248A  Res  SLS_ISCOLO
 000D:24E0  Res  SLS_NORMCO
 000D:251C  Res  SLS_NORMME
 000D:2558  Res  SLS_POPCOL
 000D:2594  Res  SLS_POPMEN
 000D:25D0  Res  SLS_FRAME
 000D:260C  Res  SLS_SHADAT
 000D:2648  Res  SLS_SHADPO
 000D:2684  Res  SLS_XPLODE
 000D:26C0  Res  SLS_PRN
 000D:26FC  Res  SLS_PRNC
 000D:2738  Res  SLS_QUERY
 000D:27AE  Res  SLS_BQUERY
 000D:2836  Res  SLS_BQZAP
 000D:286A  Res  ATT
 000D:297A  Res  POPMONTH
 000D:2A36  Res  POPVDATE
 000D:2EF2  Res  POPVYEAR
 000D:33B6  Res  MAKEBOX
 000D:3606  Res  RAT_MENU2
 000D:39D0  Res  SS_HBLINDS
 000D:3B4E  Res  SS_VBLINDS
 000D:3CCC  Res  SS_SLICE
 000D:3F2E  Res  SS_SPLIT
 000D:411C  Res  SS_FOLD
 000D:42F2  Res  SS_RISE
 000D:4474  Res  SS_FALL
 000D:45F4  Res  FADEAWAY
 000D:4632  Res  SS_FADE
 000D:46F4  Res  SS_SLIDERI
 000D:489C  Res  SS_SLIDELE
 000D:4A44  Res  SS_CLOSEH
 000D:4B9A  Res  SS_CLOSEV
 000D:4D02  Res  SS_IMPLODE
 000D:4F0E  Res  SS_WIPEH
 000D:5014  Res  SS_WIPEV
 000D:5124  Res  SHIFTR
 000D:5162  Res  VERTVIEW
 000D:56B4  Res  S_MOOSE
 000D:56D2  Res  RAT_EVENT
 000D:59C6  Res  RAT_ELBHD
 000D:5A3A  Res  RAT_ERBHD
 000D:5AAE  Res  RAT_EQMROW
 000D:5AD2  Res  RAT_EQMCOL
 000D:5AF6  Res  RAT_ISMOUS
 000D:5B46  Res  RAT_LASTEV
 000D:5B6A  Res  ISMOUSEAT
 000D:5BB4  Res  IFMOUSEHD
 000D:5C38  Res  MOUSEHOTAT
 000D:5D04  Res  MBRZCLICK
 000D:5DA8  Res  MBRZMOVE
 000D:623C  Res  RAT_EHH
 000D:6280  Res  RAT_EONKEY
 000D:62BE  Res  RAT_EONP
 000D:62E2  Res  RAT_EONL
 000D:6306  Res  RAT_EONV
 000D:632A  Res  RAT_CHECKE
 000D:635A  Res  SLS_ISMOUS
 000D:63B2  Res  RAT_LMCODE
 000D:63D6  Res  RAT_RMCODE
 000D:63FA  Res  GETSCROW
 000D:6510  Res  GETSCCOL
 000D:662A  Res  SSPRINKLE
 000D:6728  Res  AFIELDSTYP
 000D:67B0  Res  QFLDSTYPE
 000D:6834  Res  AFIELDSX
 000D:6892  Res  AFTYPESX
 000D:68F0  Res  AFLENSX
 000D:694E  Res  AFDECIX
 000D:69AC  Res  A2TOSING
 000D:6A24  Res  BXX
 000D:6CA2  Res  CTRLW
 000D:6CD2  Res  DTOW
 000D:6D3C  Res  KBDESC
 000D:6D6C  Res  SADD_REC
 000D:6E7A  Res  SNET_USE
 000D:6F3C  Res  SREC_LOCK
 000D:6FDC  Res  ISPRN
 000D:7028  Res  RAT_RESET
 000D:7048  Res  RAT_NOMOUS
 000D:705A  Res  RAT_FORCE
 000D:706C  Res  RAT_ON
 000D:7081  Res  RAT_OFF
 000D:7096  Res  RAT_ROW
 000D:70AB  Res  RAT_ROWL
 000D:70B8  Res  RAT_ROWR
 000D:70C5  Res  RAT_COL
 000D:70DA  Res  RAT_COLL
 000D:70E7  Res  RAT_COLR
 000D:70F4  Res  RAT_LEFTB
 000D:7133  Res  RAT_RIGHTB
 000D:7173  Res  RAT_POSIT
 000D:71B7  Res  RAT_EXIST
 000D:7208  Res  RAT_LBHD
 000D:723E  Res  RAT_RBHD
 000D:7277  Res  RAT_AREA
 000D:72FC  Res  ISFIELD
 000D:73B8  Res  ISTHISAREA
 000D:7442  Res  EXPBLOCK
 000D:7480  Res  WORKBLOCK
 000D:74F6  Res  PARSALIAS
 000D:7550  Res  PARSFIELD
 000D:75A6  Res  FIELDTYPEX
 000D:762E  Res  FIELDLENX
 000D:76B2  Res  FIELDDECX
 000D:7736  Res  FIELDPOSX
 000D:7822  Res  SLSF_REPOR
 000D:785E  Res  SLSF_FORM
 000D:789A  Res  SLSF_QUERY
 000D:78D6  Res  SLSF_HELP
 000D:7912  Res  SLSF_LIST
 000D:794E  Res  SLSF_SCROL
 000D:798A  Res  SLSF_COLOR
 000D:79C6  Res  SLSF_TODO
 000D:7A02  Res  SLSF_TDN1
 000D:7A3E  Res  SLSF_TDN2
 000D:7A7A  Res  SLSF_TDN3
 000D:7AB6  Res  SLSF_APPT
 000D:7AF2  Res  SLSF_LABEL
 000D:7B2E  Res  SLSF_OLD
 000D:7B6A  Res  SACHOICE
 000D:823C  Res  RAT_READ
 000D:845E  Res  RATREADER
 000D:8712  Res  RATAPPLYKE
 000D:8ACE  Res  RATPREVALI
 000D:8B94  Res  RATPOSTVAL
 000D:8CD6  Res  RATDOSETKE
 000D:8D70  Res  __KILLRATR
 000D:8D9A  Res  RATACTIVE
 000D:8DE0  Res  RATUPDATED
 000D:8E08  Res  RATEXIT
 000D:8E3C  Res  RATINSERT
 000D:8E70  Res  RATKILL
 000D:8EB6  Res  RATSETUPDA
 000D:8EFC  Res  R_GETPUSH
 000D:8F30  Res  R_GETPOP
 000D:8F7C  Res  GETJUMP2
 000D:9064  Res  R_ISRATREA
 000D:90FE  Res  RRLASTKEY
 000D:917A  Res  RRJUMP2
 000D:920A  Res  VIEWMEMOS
 000D:9542  Res  SHUFFL
 000D:9560  Res  SHUFFLE
 000D:9D1C  Res  NURD
 000D:9D76  Res  MMEMOEDIT
 000D:A000  Res  __M34_GP
 000D:A4DA  Res  VS_ALERTES
 000D:A522  Res  VS_ALERT
 000D:AC26  Res  VS_MONO
 000D:AC6E  Res  VS_DEFPAL
 000D:AF92  Res  VS_TEXTSTD
 000D:AFEA  Res  VS_TEXTENH
 000D:B042  Res  VS_TEXTUNS
 000D:B09A  Res  VS_TEXTCOL
 000D:B102  Res  VS_TXTCOLR
 000D:B150  Res  VS_WINDSTD
 000D:B1A8  Res  VS_WINDENH
 000D:B200  Res  VS_WINDUNS
 000D:B258  Res  VS_WINDBOX
 000D:B2B0  Res  VS_WINDSHD
 000D:B2F8  Res  VS_BOXSTR
 000D:B344  Res  VS_VBOXSTR
 000D:B390  Res  VS_WNDCOLR
 000D:B3FE  Res  VS_WINDCOL
 000D:B466  Res  VS_PALETTE
 000D:B4B0  Res  VS_SAVECOL
 000D:B6D2  Res  VS_READCOL
 000D:B89C  Res  VS_SAMPSCR
 000D:BCBC  Res  VS_COLOR
 000D:C3D8  Res  VS_FG
 000D:C452  Res  VS_BG
 000D:D606  Res  VS_ERROR
 000D:D630  Res  VS_ERRSET
 000D:D696  Res  VS_ERRINFO
 000D:D706  Res  VS_ERRLIST
 000D:D72E  Res  VS_GRABSCR
 000D:D792  Res  VS_PUTSCRN
 000D:D8A0  Res  VS_DROPSCR
 000D:D8E8  Res  VS_CFGFILE
 000D:D932  Res  VS_INITVER
 000D:D9FE  Res  VS_VERSION
 000D:DA62  Res  SMAKECFG
 000D:DC46  Res  VS_INKEY
 000D:DCD8  Res  VS_MSGDISP
 000D:DD72  Res  VS_MSGADD
 000D:DE06  Res  VS_MSGDEL
 000D:F8EE  Res  VS_NETTIME
 000D:F936  Res  VS_FAKELOC
 000D:F9B4  Res  VS_APPEND
 000D:FB20  Res  VS_FLOCK
 000D:FC70  Res  VS_RLOCK
 000D:FDC0  Res  VS_OKBOX
 000D:FF1A  Res  VS_STUFF
 000D:FF4C  Res  VS_DATETIM
 000E:0000  Res  VS_GETDATE
 000E:0030  Res  VS_GETTIME
 000E:00E6  Res  VS_ELAPDAY
 000E:0126  Res  VS_ELAPHOU
 000E:015E  Res  VS_ELAPMIN
 000E:0196  Res  VS_ELAPSEC
 000E:021C  Res  VS_ADDSECS
 000E:02F8  Res  VS_ADDMINS
 000E:03D6  Res  VS_ADDHOUR
 000E:04B4  Res  VS_ADDDAYS
 000E:059A  Res  VS_WAITSEC
 000E:05D4  Res  VS_WIND
 000E:0822  Res  VS_DIM
 000E:08E8  Res  VS_LBRACKE
 000E:09E6  Res  VS_RBRACKE
 000E:0AF0  Res  GWMINIT
 000E:0B19  Res  _GWMPRES
 000E:0B34  Res  GWMON
 000E:0B48  Res  GWMOFF
 000E:0B5B  Res  GWMREAD
 000E:0BC1  Res  _GWMSETPOS
 000E:0C1F  Res  _GWMHRANGE
 000E:0C7D  Res  _GWMVRANGE
 000E:0CDB  Res  GWMSET
 000E:0D1E  Res  GWMMOTION
 000E:0D50  Res  GWVIDEO
 000E:0DD9  Res  _GWMKDIR
 000E:0DE4  Res  _GWRMDIR
 000E:0DEF  Res  _GWCHDIR
 000E:0DFA  Res  _GWDRIVE
 000E:0E4C  Res  CLIPPER501
 000E:0E8F  Res  GWINT86
 000E:113E  Res  FT_DEFAULT
 000E:1190  Res  __FTDIR
 000E:11DA  Res  FT_MKDIR
 000E:11E6  Res  FT_SHADOW
 000E:12D6  Res  GWCOLOR2NU
 000E:14D6  Res  GWNUM2COLO
 000E:15F8  Res  GWDRIVE
 000E:1692  Res  GWENCRYPT
 000E:16C4  Res  GWDECRYPT
 000E:17D8  Res  GWSAVEENV
 000E:1846  Res  GWRESTENV
 000E:1934  Res  _GWRESTENV
 000E:1A12  Res  GWEXPLOSIO
 000E:1A5E  Res  GWEXPLODE
 000E:1C9C  Res  GWLOADFONT
 000E:1D7A  Res  GWUSEFONTS
 000E:1E1C  Res  GWSCANLINE
 000E:1E8C  Res  GWRESETFON
 000E:1EC8  Res  _CHHOTSPOT
 000E:2006  Res  _CHHOTKEY
 000E:20C8  Res  GWHOTSPOT
 000E:2254  Res  GWDELSPOT
 000E:2334  Res  GWDELALLSP
 000E:236A  Res  GWCOOLSPOT
 000E:23EE  Res  GWCOOLALLS
 000E:2442  Res  GWWARMSPOT
 000E:24C6  Res  GWWARMALLS
 000E:251A  Res  GWSAVESPOT
 000E:256C  Res  GWRESTSPOT
 000E:25B6  Res  GWPAINTSPO
 000E:26B4  Res  GWMPOSITIO
 000E:2702  Res  GWMPRESENT
 000E:2778  Res  GWMUSE
 000E:2802  Res  GWMSETPOS
 000E:2890  Res  MSCROLL
 000E:28E6  Res  MSETMODE
 000E:2942  Res  MSETPOS
 000E:298C  Res  MSAVESCREE
 000E:29E4  Res  MRESTSCREE
 000E:2A3A  Res  MQOUT
 000E:2ACC  Res  MQQOUT
 000E:2B16  Res  MDEVOUT
 000E:2B64  Res  MDEVOUTPIC
 000E:2BB4  Res  MDISPBOX
 000E:2C0E  Res  MDISPBEGIN
 000E:2C56  Res  MDISPEND
 000E:2C9E  Res  GWVGACOLOR
 000E:2ED6  Res  GWRDACREGS
 000E:2F7C  Res  GWALLVGACO
 000E:302A  Res  GWENABLECO
 000E:316A  Res  GWDISABLEC
 000E:31C4  Res  GWENABLED
 000E:32B6  Res  GWPWREADER
 000E:34FC  Res  GWPWDISP
 000E:35D4  Res  GWRESTSCRE
 000E:37F6  Res  GWSAVESCRE
 000E:38DA  Res  GWSHADOWBO
 000E:3A86  Res  GWSHADOWHE
 000E:3AD2  Res  GWDRAWSHAD
 000E:3C5C  Res  GWPAINTBOX
 000E:3D12  Res  GWSIZE
 000E:3D8E  Res  GWUSESPECI
 000E:3E80  Res  GWREADFONT
 000E:3F64  Res  GWSPEED
 000E:4016  Res  GWISMONO
 000E:4040  Res  GWISCGA
 000E:406C  Res  GWISEGA
 000E:4098  Res  GWISVGA
 000E:40C4  Res  GWWAITKEY
 000E:41DA  Res  GWSCREENSA
 000E:4260  Res  GWMDBLCLIC
 000E:42A8  Res  GWMWAIT
 000E:454C  Res  GWACTION
 000E:465C  Res  GWLASTKEY
 000E:4684  Res  GWASK
 000E:505E  Res  _SUPPOSEMS
 000E:5106  Res  GWCOPYFILE
 000E:546C  Res  GWCHDIR
 000E:54CC  Res  GWMKDIR
 000E:5526  Res  GWRMDIR
 000E:57F6  Res  GWGETDIR
 000E:5BBC  Res  GWMESSAGE
 000E:5D6A  Res  GWSTATUSBA
 000E:5EEE  Res  BOX_TITLE
 000E:6004  Res  COLORPAL
 000E:675A  Res  COLOR_N2S
 000E:6812  Res  COLOR_S2N
 000E:6936  Res  COLORSET
 000E:6A08  Res  COLORINIT
 000E:6B8A  Res  COLORMOD
 000E:78C4  Res  GFMOUSE
 000E:78E4  Res  GILLIGAN
 000E:7958  Res  INDEXBAR
 000E:7F90  Res  GFRAND
 000E:8018  Res  GFSAVEENV
 000E:80DC  Res  GFRESTENV
 000E:81EE  Res  SHADOWBOX
 000E:8480  Res  YES_NO2
 000E:8AD2  Res  __GFMINIT
 000E:8B77  Res  __GFMEXIT
 000E:8BA8  Res  __GFMNOTIFY
 000E:8BE9  Res  __GFMHIDE
 000E:8C1E  Res  __GFMSHOW
 000E:8C51  Res  __GFMCURS
 000E:8C85  Res  __GFMSETP
 000E:8CCF  Res  __GFMGETP
 000E:8D25  Res  __GFMDBLCL
 000E:8D4B  Res  __GFMLIMIT
 000E:8D9D  Res  GFLASTROW
 000E:8DAA  Res  GFLASTCOL
 000E:8DB0  Res  ISMOUSE
 000E:8DBB  Res  ENABLEDRAG
 000E:8DD9  Res  __BUTTPAINALLEVIATE
 000E:8E54  Res  SETMODE
 000E:8E8D  Res  NOSNOW
 000E:8EBF  Res  ISCOLOR
 000E:8ED0  Res  GFATTR
 000E:8F66  Res  FT_RESTSET
 000E:8FBE  Res  FT_SETCENT
 000E:8FFE  Res  FT_XBOX
 000E:93C6  Res  FT_SAVESET
 000E:946C  Res  FT_ONIDLE
 000E:94E2  Res  _CPUTYPE
 000E:957F  Res  _CRIT
 000E:9604  Res  _ISPMODESEG
 000E:962D  Res  _ISDPMISEG
 000E:963D  Res  _ISD16MSEG
 000E:9648  Res  _U2HEX
 000E:9685  Res  BOOTNUM
 000E:97CC  Res  CPU
 000E:9805  Res  _RMINT
 000E:983C  Res  _RESETDISK
 000E:984F  Res  _LIBERASELECT
 000E:9860  Res  DRIVETYPE
 000E:9890  Res  HDCOUNT
 000E:98B3  Res  TYPEPC
 000E:9978  Res  DECHEXB
 000E:999F  Res  _WCRC
 000E:99F7  Res  ISDPMI
 000E:9A0A  Res  _ST
 000E:9A1A  Res  _CRISS
 000E:9A24  Res  _ISEXTEND
 000E:9A92  Res  _____S1A
 000E:9AF6  Res  _STRSTR
 000E:9B4A  Res  AJFONT
 000E:9BD4  Res  AJSETFONT
 000E:A392  Res  AJINIT
 000E:A420  Res  FLIB_01
 0013:1AA4  Res  FLIB_02
 0015:EECC  Res  FLIB_03
 0015:EFEE  Res  BLICALC50
 0015:F022  Res  BLIMEMAVL
 0015:F04A  Res  BLIMEMMAX
 0015:F070  Res  BLPRFPRG
 0015:F08A  Res  BLERRC50
 0015:F88C  Res  ACOPY
 0015:FA12  Res  AINS
 0016:04B6  Res  __MSAVE
 0016:054A  Res  __MRESTORE
 0016:05B8  Res  _EINSTVAR
 0016:069C  Res  __ERRNEW
 0016:06B6  Res  __ERRLAUNCH
 0016:06D8  Res  __ERRRELEASE
 0016:06FC  Res  __ERRPUTSEVERITY
 0016:070E  Res  __ERRPUTGENCODE
 0016:0722  Res  __ERRPUTOSCODE
 0016:0736  Res  __ERRPUTFLAGS
 0016:074A  Res  __ERRPUTTRIES
 0016:075E  Res  __ERRPUTSUBCODE
 0016:0772  Res  __ERRPUTSUBSYSTEM
 0016:078C  Res  __ERRPUTDESCRIPTION
 0016:07A6  Res  __ERRPUTOPERATION
 0016:07CC  Res  __ERRPUTFILENAME
 0016:07E6  Res  __ERRGETSEVERITY
 0016:07F2  Res  __ERRGETGENCODE
 0016:07FE  Res  __ERRGETOSCODE
 0016:080A  Res  __ERRGETFLAGS
 0016:0816  Res  __ERRGETTRIES
 0016:0822  Res  __ERRGETSUBCODE
 0016:082E  Res  __ERRGETSUBSYSTEM
 0016:083E  Res  __ERRGETDESCRIPTION
 0016:084E  Res  __ERRGETOPERATION
 0016:085E  Res  __ERRGETFILENAME
 0016:086E  Res  __VALLOC
 0016:0882  Res  __VFREE
 0016:0892  Res  __VREALLOC
 0016:08A8  Res  __VLOCK
 0016:08B8  Res  __VWIRE
 0016:08C8  Res  __VUNLOCK
 0016:08D8  Res  __VUNWIRE
 0016:08E8  Res  __VLOCKCOUNT
 0016:08F8  Res  __VSIZE
 0016:11E4  Res  __DBFGOHOT
 0016:124C  Res  __DBFGOCOLD
 0016:128E  Res  __DBFGOTOID
 0016:12CE  Res  __DBFGOTO
 0016:13F6  Res  __DBFGOTOP
 0016:143E  Res  __DBFGOBOTTOM
 0016:14B6  Res  __DBFSKIPRAW
 0016:151E  Res  __DBFSKIP
 0016:15EE  Res  __DBFFORCEREL
 0016:16AC  Res  __DBFCHILDSYNC
 0016:16E6  Res  __DBFCHILDEND
 0016:172A  Res  __DBFCHILDSTART
 0016:175C  Res  __DBFFLUSH
 0016:187A  Res  __DBFCLOSE
 0016:1AA0  Res  __DBFSETFIELDEXTENT
 0016:1ADC  Res  __DBFADDFIELD
 0016:1E64  Res  ___XDEFALIAS
 0016:1EDE  Res  __DBFOPEN
 0016:1FCC  Res  __DBFCREATE
 0016:2360  Res  __DBFNEW
 0016:2428  Res  __DBFGETVARLEN
 0016:2552  Res  __DBFGETVALUE
 0016:2A32  Res  __DBFPUTVALUE
 0016:2D54  Res  __DBFDELETE
 0016:2DE2  Res  __DBFRECALL
 0016:2E70  Res  __DBFDELETED
 0016:2EC4  Res  __DBFRECNO
 0016:2F02  Res  __DBFBOF
 0016:2F32  Res  __DBFEOF
 0016:2F62  Res  __DBFFOUND
 0016:3216  Res  __DBFLOCK
 0016:3264  Res  __DBFUNLOCK
 0016:331E  Res  __DBFAPPEND
 0016:354C  Res  __DBFPACK
 0016:364E  Res  __DBFZAP
 0016:371A  Res  __DBFPLACEREC
 0016:3760  Res  __DBFSORT
 0016:3D14  Res  __DBFPUTREC
 0016:3D66  Res  __DBFTRANSREC
 0016:3E44  Res  __DBFTRANS
 0016:3F74  Res  __DBFINFO
 0016:4038  Res  __DBFSETFILTER
 0016:406C  Res  __DBFRECCOUNT
 0016:40A2  Res  __DBFSTRUCTSIZE
 0016:40B2  Res  __DBFSYSNAME
 0016:40CC  Res  __DBFGETFUNCTABLE
 0016:4102  Res  _DBFINIT
 0016:410A  Res  __DBFPLACERECP
 0016:413A  Res  DBFONLY
 0016:4154  Res  __NETMESS
 0016:4156  Res  __NETALCK
 0016:419C  Res  __NETAUNL
 0016:41BC  Res  __NETFLCK
 0016:41DC  Res  __NETFUNL
 0016:41FE  Res  __NETRLCK
 0016:4226  Res  __NETRUNL
 0016:424C  Res  __NETWHO
 0016:4260  Res  NETNAME
 0016:42E0  Res  __INDEXEXCLLOCK
 0016:4304  Res  __INDEXEXCLUNLOCK
 0016:4686  Res  GWAJOIN
 0016:470E  Res  GWSTANDARD
 0016:478C  Res  GWENHANCED
 0016:480A  Res  GWBORDER
 0016:4888  Res  GWUNSELECT
 0016:4906  Res  GWSPLITCOL
 0016:49C0  Res  GWCRLF
 0016:49E6  Res  FINDPATH
 0016:4ACC  Res  FULLNAME
 0016:4B58  Res  GWSLOSH
 0016:4BE2  Res  GWWHATISTH
 0018:0206  Res  _BLIDEMCAL
 0018:020D  Res  _BLIDEMDTE
 0018:0266  Res  _BLIDEMMIN
 0018:0274  Res  _BLIERRNUM
 0018:0279  Res  _BLIERRPRM
 0018:0283  Res  _BLIOVLOPS
 0018:028D  Res  _BLIOVLRES
 0018:02C8  Res  _BLIOVLSIZ
 0018:02D2  Res  _BLIOVLSUS
 0018:0314  Res  $$VMREINIT
 0018:0314  Res  _BLIREINIT
 0018:034D  Res  _BLISERNUM
 0018:0353  Res  $$VMUNHOOK
 0018:0353  Res  _BLIUNHOOK
 0018:039E  Res  _BLIVERNUM
 0018:085E  Res  $$$OVLEND
 0018:0A17  Res  $$$OVLDEF
 0018:0F36  Res  $$$OVLERR
 0018:0F48  Res  $$$OVLINI
 0018:1244  Res  $$$OVLCLP
 0018:1264  Res  BLICALNUM
 0018:126F  Res  BLIDEMCAL
 0018:127C  Res  BLIDEMDTE
 0018:1286  Res  BLIDEMMIN
 0018:1297  Res  BLIERRNUM
 0018:12A1  Res  BLIERRPRM
 0018:12AB  Res  BLIMEMPAK
 0018:12D1  Res  BLIOVLCLR
 0018:12E8  Res  BLIOVLOPS
 0018:12F0  Res  BLIOVLRES
 0018:12F6  Res  BLIOVLSIZ
 0018:12FE  Res  BLIOVLSUS
 0018:1309  Res  BLIREINIT
 0018:130F  Res  BLISERNUM
 0018:1319  Res  BLIUNHOOK
 0018:131F  Res  BLIVERNUM
 0018:1A0C  Res  _BLIMGRSTS
 0018:1ADE  Res  DOSALLOCHUGE
 0018:1B1A  Res  DOSALLOCSEG
 0018:1B62  Res  DOSALLOCREALSEG
 0018:1BB0  Res  DOSCREATECSALIAS
 0018:1BDC  Res  DOSCREATEDSALIAS
 0018:1C08  Res  DOSFREEREALSEG
 0018:1C3A  Res  DOSFREESEG
 0018:1C5E  Res  DOSFREESELECTOR
 0018:1C9C  Res  DOSGETBIOSSEG
 0018:1CB2  Res  DOSGETEXCEPTIONHANDLER
 0018:1CF0  Res  DOSGETHOSTMODE
 0018:1D02  Res  DOSGETHUGESHIFT
 0018:1D22  Res  DOSGETMACHINEMODE
 0018:1D48  Res  DOSGETPROTVEC
 0018:1D70  Res  DOSGETREALVEC
 0018:1D98  Res  DOSGETSEGBASE
 0018:1DC8  Res  DOSGETSEGDESC
 0018:1E14  Res  DOSGETSEGLIMIT
 0018:1E40  Res  DOSISBLINKX
 0018:1E52  Res  DOSLOCKSEG
 0018:1E68  Res  DOSMAPREALSEG
 0018:1EFA  Res  DOSMEMAVAIL
 0018:1F26  Res  DOSREALAVAIL
 0018:2064  Res  _DOSREALFARCALL
 0018:20AA  Res  _DOSREALINTR
 0018:2148  Res  DOSREALLOCHUGE
 0018:2172  Res  DOSREALLOCSEG
 0018:21B2  Res  DOSSETEXCEPTIONHANDLER
 0018:21FA  Res  DOSSETPROTVEC
 0018:2238  Res  DOSSETREALVEC
 0018:2276  Res  DOSSETSEGATTRIB
 0018:22C4  Res  DOSUNLOCKSEG
 0018:22DA  Res  DOSVERIFYACCESS
 0018:22FA  Res  DOSVMAVAIL
 0018:2314  Res  $$$KRNPAT
 0018:283A  Res  $$$OVLPRM
 0018:2AB3  Res  $$$OVLDAT
 0018:2B52  Res  $$$OVLPRC
 0018:2C39  Res  $$$KRNSEG
 0019:0000  Res  __WEEDBED
 0019:7240  Res  __WEEDEND
 001B:0220  Res  _T_START
 001B:03A8  Res  _T_TRAN
 001B:07DA  Res  _ACCESSOR
 001B:0960  Res  _N_START
 001B:0AE8  Res  _N_TRAN
 001B:10A4  Res  _D_RED
 001B:122A  Res  _R_START
 001B:13B2  Res  _R_SYMB
 001B:1654  Res  _R_PROD
 001B:18F6  Res  _P_LENGTH
 001B:1A00  Res  _H_SYMBOL
 001B:1B0A  Res  _STUFF
 001C:0090  Res  $$$DYNPAG
 001D:0000  Res  VS9CSYRT
 001E:0042  Res  CMX495824455
 001E:014E  Res  CMX038938731
 001E:015C  Res  CMX198729792
 001E:0386  Res  CMX346213443
 001E:03E6  Res  CMX307919903
 001E:03F2  Res  CMX822738675
 001E:0428  Res  CMX625305044
 001E:045E  Res  CMX511761181
 001E:04BE  Res  CMX486663288
 001E:051E  Res  CMX856685923
 001E:05A2  Res  CMX939088879
 001E:05DE  Res  CMX471999563
 001E:065E  Res  CMX043466959
 001E:0660  Res  CMX872159283
 001E:0662  Res  _VCOMIX
 001E:07C4  Res  CMX797739767
 001E:07C6  Res  CMX578202776
 001E:07C8  Res  CMX911813307
 001E:07CA  Res  CMX224887242
 001E:07D0  Res  CMX608779732
 001E:07EE  Res  _VCOMIXDBF
 001E:094A  Res  CMX212346560
 001E:0A72  Res  CMX103549192
 001E:0ABC  Res  CMX133918781
 001E:0ABE  Res  CMX625633580
 001E:0AC4  Res  CMX727382004
 001E:0ACE  Res  CMX427087269
 001E:0AD0  Res  __FSEGS
 001E:0AD4  Res  __LONESEGS
 001E:0AE6  Res  __ASIZDS
 001E:0AE8  Res  __ATOPSP
 001E:0AEA  Res  __AEXIT_RTN
 001E:0AEC  Res  __ABRKTB
 001E:0B3C  Res  __ABRKP
 001E:0B3C  Res  __ABRKTBE
 001E:0B3E  Res  BLXMODE@
 001E:0B40  Res  CSALIAS@
 001E:0B42  Res  SSALIAS@
 001E:0B44  Res  __AHSHIFT@
 001E:0B46  Res  __AHINCR@
 001E:0BDE  Res  __OGEN0
 001E:0C8C  Res  __OGEN1
 001E:0D3A  Res  __OGEN
 001E:0D3E  Res  __OBOUNDS
 001E:0D46  Res  __OPF
 001E:0D48  Res  __OPX
 001E:0DAE  Res  __XLOCK
 001E:0DB0  Res  __XGRIP1
 001E:0DB2  Res  __XGRIP2
 001E:0DB4  Res  __XGRIP3
 001E:0DB6  Res  __XSEGMIN
 001E:0DB8  Res  __XSAFE
 001E:0E32  Res  __OSEGS
 001E:1A74  Res  __STACKBASE
 001E:1A76  Res  __STACKSLOP
 001E:1B08  Res  __DISKIODROP
 001E:1B0C  Res  _SWAPLOWEVENTID
 001E:1B0E  Res  _RECEIVERHANDLE
 001E:1C5C  Res  __VMMSTCLOW
 001E:1C5E  Res  __VMMSTCOFF
 001E:1C60  Res  __VMMSTCSEG
 001E:1CC2  Res  __VMMADDORR
 001E:1CC4  Res  __VMMADDAND
 001E:1CC6  Res  __VMMADDINC
 001E:1CC8  Res  _VDISPLAY
 001E:1E5C  Res  _VGETSYS
 001E:1E60  Res  __ACFINFO
 001E:1E6D  Res  __AINTDIV
 001E:1E71  Res  __FAC
 001E:1E79  Res  _ERRNO
 001E:1E7B  Res  __UMASKVAL
 001E:1E7D  Res  __PSPADR
 001E:1E7F  Res  __PSP
 001E:1E81  Res  __OSVERSION
 001E:1E81  Res  __DOSVERMAJOR
 001E:1E81  Res  __OSMAJOR
 001E:1E82  Res  __OSMINOR
 001E:1E82  Res  __DOSVERMINOR
 001E:1E83  Res  __OSMODE
 001E:1E84  Res  __OSERR
 001E:1E84  Res  __DOSERRNO
 001E:1E86  Res  __NFILE
 001E:1E88  Res  __OSFILE
 001E:1E9C  Res  ___ARGC
 001E:1E9E  Res  ___ARGV
 001E:1EA2  Res  _ENVIRON
 001E:1EA6  Res  __PGMPTR
 001E:1EAC  Res  __CHILD
 001E:1EAE  Res  __OVLFLAG
 001E:1EAF  Res  __INTNO
 001E:1EB0  Res  __OVLVEC
 001E:1EB4  Res  __ADBGMSG
 001E:1ED0  Res  _HUGE
 001E:1ED8  Res  __MATHERR_FLAG
 001E:1EDA  Res  OPTAB
 001E:1F00  Res  __FCSP
 001E:1F02  Res  __FPSIGADR
 001E:1F06  Res  __FCTMP
 001E:2070  Res  __FCTOPST
 001E:2084  Res  $I8_RESULT
 001E:2084  Res  $I4_RESULT
 001E:20BC  Res  $I4_ROUND_FLAG
 001E:20BD  Res  $I4_ROUND_EXP
 001E:20BF  Res  $I4_AC_HI
 001E:20C3  Res  $I4_AC_LO
 001E:20D4  Res  $I8_ROUND_FLAG
 001E:20D5  Res  $I8_ROUND_EXP
 001E:20D7  Res  $I8_AC_HI
 001E:20DF  Res  $I8_AC_LO
 001E:2170  Res  $I8_HALF
 001E:2178  Res  $I8_ONE
 001E:2180  Res  $I8_TWO
 001E:2188  Res  $I8_ARG
 001E:2190  Res  $I8_TEMP
 001E:21B1  Res  $I8_LOG_HI
 001E:21B9  Res  $I8_LOG_LO
 001E:2226  Res  $I8_Z
 001E:222E  Res  $I8_ZZ
 001E:2236  Res  $I8_PZZ
 001E:224E  Res  $I8_INPUT_WS
 001E:224F  Res  $I8_IMPLICIT_EXP
 001E:22C4  Res  __SFIELDS
 001E:22C8  Res  __SFCOUNT
 001E:22CA  Res  __SLBASE
 001E:22CE  Res  __SRBASE
 001E:22D2  Res  __SRSIZE
 001E:22D4  Res  __TERROR
 001E:22D6  Res  __HORROR
 001E:22D8  Res  __TVERSION
 001E:22DA  Res  __TXERROR
 001E:22DC  Res  __TXCLASS
 001E:22DE  Res  __TXACTION
 001E:22E0  Res  __TXLOCUS
 001E:24A0  Res  __MSCONFLICT1
 001E:24A0  Res  __CFLTCVT_TAB
 001E:2530  Res  __XARGC
 001E:2532  Res  __XARGV
 001E:25A4  Res  C50R100
 001E:25A6  Res  CLIPPER520
 001E:2644  Res  __EVKBDENTRY
 001E:266E  Res  _DMOD_TABLE
 001E:2698  Res  __SYMEVAL
 001E:26A0  Res  __IBPUSHTRAN
 001E:26A4  Res  __IBEVALTRAN
 001E:26A8  Res  __EVAL
 001E:26AA  Res  __TOS
 001E:26AC  Res  __EVALHIGH
 001E:26AE  Res  __ESTATLOW
 001E:26B0  Res  __ESTAT
 001E:26B2  Res  __EEXTENT
 001E:26B4  Res  __LBASE
 001E:26B6  Res  __FBASE
 001E:26B8  Res  __SBASE
 001E:26BA  Res  __PCOUNT
 001E:26BC  Res  __FZZCOUNT
 001E:26C0  Res  __LINE_NUM
 001E:26C2  Res  __XLINE
 001E:26C4  Res  __SYSFLAGS
 001E:26CE  Res  __MSTACK
 001E:26D2  Res  __MLINK
 001E:26D6  Res  __MCOUNT
 001E:26D8  Res  __MTOP
 001E:26DA  Res  __MBP
 001E:26DC  Res  __PTOP
 001E:278A  Res  __SET
 001E:2806  Res  __SETHANDLER
 001E:2966  Res  __ERRORDICT
 001E:2972  Res  __SALT
 001E:2974  Res  __NETERR
 001E:2D4A  Res  _MACRO_ERROR
 001E:340A  Res  _REZ_ALIAS
 001E:364E  Res  __MACROP
 001E:36C0  Res  __PFVERSION
 001E:36C2  Res  __PFLOCK
 001E:36C4  Res  __DYN_GETPP
 001E:36C8  Res  __DBGCOMM
 001E:3822  Res  __DYN_USED
 001E:3882  Res  __PREEXTP
 001E:3886  Res  __POSTEXTP
 001E:388A  Res  __ALERTP
 001E:39FA  Res  __TCSTR
 001E:39FE  Res  __TCLEN
 001E:3A6A  Res  __COLORCOUNT
 001E:3A6C  Res  __COLORS
 001E:3AE8  Res  __TBUFF
 001E:3AEC  Res  __TBUFFSIZE
 001E:3B24  Res  __GETDICT
 001E:3DBE  Res  __SELECTION
 001E:3DC4  Res  __WORKAREAS
 001E:3F0C  Res  __WAFUNCTABLE
 001E:4034  Res  __PAGE_ERROR
 001E:4036  Res  __PAGE_GOT
 001E:4058  Res  __NASCII
 001E:405A  Res  __NDBCS
 001E:4734  Res  __NBUFF
 001E:4D90  Res  _VDBFNTX
 001E:4DD0  Res  __DTXSUPER
 001E:50D2  Res  _VKEYBOARD
 001E:51B0  Res  __NO_SNOW
 001E:51FC  Res  _____S2A
 001E:52E2  Res  __DBFSUPER
 001E:5562  Res  _VDBF
 001E:558C  Res  _VMOUSE
 001E:5606  Res  ___SYMPB
 001E:5626  Res  ___SYMPE
 001E:562E  Res  __DYNINA
 001E:5632  Res  __MACROINA
 001E:5650  Res  __FPINIT
 001E:5670  Res  _VTERM
 001E:5670  Res  _VMACRO
 001E:5670  Res  _VDB
 001E:5670  Res  _VOPS
 001E:5670  Res  __LTABLE
 001E:5670  Res  _VPICT
 001E:5ACA  Res  _EDATA
 001E:5ACA  Res  __EDATA
 001E:5AD2  Res  CMX503738997
 001E:5AD6  Res  CMX488939156
 001E:5AD8  Res  CMX195106286
 001E:5ADC  Res  CMX924834593
 001E:5AE0  Res  CMX552432701
 001E:5AE4  Res  CMX884228222
 001E:5AE8  Res  CMX041705253
 001E:5AEA  Res  CMX054244896
 001E:5AEE  Res  CMX104374609
 001E:5AF2  Res  CMX412433280
 001E:5AF6  Res  CMX735413882
 001E:5BBE  Res  CMX046623573
 001E:5BC0  Res  CMX056834027
 001E:5BC2  Res  CMX144624446
 001E:5C26  Res  CMX100794084
 001E:5C40  Res  CMX191386948
 001E:5D68  Res  CMX328428985
 001E:5DBC  Res  CMX742534246
 001E:5DDA  Res  CMX018405255
 001E:5E02  Res  CMX419782919
 001E:5E06  Res  CMX761129710
 001E:5E0A  Res  CMX236313297
 001E:5FB0  Res  _THEGET
 001E:5FB2  Res  _THEGINFO
 001E:5FDE  Res  _THEBUFF
 001E:5FE2  Res  _THEBUFFLEN
 001E:5FE4  Res  _THETEMP
 001E:5FE8  Res  _THETEMPLEN
 001E:5FEA  Res  _EBREAK
 001E:5FF0  Res  _END
 001E:5FF0  Res  __END

 Program entry point at 0018:0000

